ARM GAS  C:\Users\bwil410\AppData\Local\Temp\cc7k2h9F.s 			page 1


   1              		.syntax unified
   2              		.cpu cortex-m3
   3              		.fpu softvfp
   4              		.eabi_attribute 20, 1
   5              		.eabi_attribute 21, 1
   6              		.eabi_attribute 23, 3
   7              		.eabi_attribute 24, 1
   8              		.eabi_attribute 25, 1
   9              		.eabi_attribute 26, 1
  10              		.eabi_attribute 30, 1
  11              		.eabi_attribute 34, 1
  12              		.eabi_attribute 18, 4
  13              		.thumb
  14              		.file	"ADC_SAR_1.c"
  15              		.text
  16              	.Ltext0:
  17              		.cfi_sections	.debug_frame
  18              		.section	.text.ADC_SAR_1_CalcGain,"ax",%progbits
  19              		.align	2
  20              		.thumb
  21              		.thumb_func
  22              		.type	ADC_SAR_1_CalcGain, %function
  23              	ADC_SAR_1_CalcGain:
  24              	.LFB12:
  25              		.file 1 ".\\Generated_Source\\PSoC5\\ADC_SAR_1.c"
   1:.\Generated_Source\PSoC5/ADC_SAR_1.c **** /*******************************************************************************
   2:.\Generated_Source\PSoC5/ADC_SAR_1.c **** * File Name: ADC_SAR_1.c
   3:.\Generated_Source\PSoC5/ADC_SAR_1.c **** * Version 3.0
   4:.\Generated_Source\PSoC5/ADC_SAR_1.c **** *
   5:.\Generated_Source\PSoC5/ADC_SAR_1.c **** * Description:
   6:.\Generated_Source\PSoC5/ADC_SAR_1.c **** *  This file provides the source code to the API for the Successive
   7:.\Generated_Source\PSoC5/ADC_SAR_1.c **** *  approximation ADC Component.
   8:.\Generated_Source\PSoC5/ADC_SAR_1.c **** *
   9:.\Generated_Source\PSoC5/ADC_SAR_1.c **** * Note:
  10:.\Generated_Source\PSoC5/ADC_SAR_1.c **** *
  11:.\Generated_Source\PSoC5/ADC_SAR_1.c **** ********************************************************************************
  12:.\Generated_Source\PSoC5/ADC_SAR_1.c **** * Copyright 2008-2015, Cypress Semiconductor Corporation.  All rights reserved.
  13:.\Generated_Source\PSoC5/ADC_SAR_1.c **** * You may use this file only in accordance with the license, terms, conditions,
  14:.\Generated_Source\PSoC5/ADC_SAR_1.c **** * disclaimers, and limitations in the end user license agreement accompanying
  15:.\Generated_Source\PSoC5/ADC_SAR_1.c **** * the software package with which this file was provided.
  16:.\Generated_Source\PSoC5/ADC_SAR_1.c **** *******************************************************************************/
  17:.\Generated_Source\PSoC5/ADC_SAR_1.c **** 
  18:.\Generated_Source\PSoC5/ADC_SAR_1.c **** #include "CyLib.h"
  19:.\Generated_Source\PSoC5/ADC_SAR_1.c **** #include "ADC_SAR_1.h"
  20:.\Generated_Source\PSoC5/ADC_SAR_1.c **** 
  21:.\Generated_Source\PSoC5/ADC_SAR_1.c **** #if(ADC_SAR_1_DEFAULT_INTERNAL_CLK)
  22:.\Generated_Source\PSoC5/ADC_SAR_1.c ****     #include "ADC_SAR_1_theACLK.h"
  23:.\Generated_Source\PSoC5/ADC_SAR_1.c **** #endif /* End ADC_SAR_1_DEFAULT_INTERNAL_CLK */
  24:.\Generated_Source\PSoC5/ADC_SAR_1.c **** 
  25:.\Generated_Source\PSoC5/ADC_SAR_1.c **** 
  26:.\Generated_Source\PSoC5/ADC_SAR_1.c **** /***************************************
  27:.\Generated_Source\PSoC5/ADC_SAR_1.c **** * Forward function references
  28:.\Generated_Source\PSoC5/ADC_SAR_1.c **** ***************************************/
  29:.\Generated_Source\PSoC5/ADC_SAR_1.c **** static void ADC_SAR_1_CalcGain(uint8 resolution);
  30:.\Generated_Source\PSoC5/ADC_SAR_1.c **** 
  31:.\Generated_Source\PSoC5/ADC_SAR_1.c **** 
  32:.\Generated_Source\PSoC5/ADC_SAR_1.c **** /***************************************
ARM GAS  C:\Users\bwil410\AppData\Local\Temp\cc7k2h9F.s 			page 2


  33:.\Generated_Source\PSoC5/ADC_SAR_1.c **** * Global data allocation
  34:.\Generated_Source\PSoC5/ADC_SAR_1.c **** ***************************************/
  35:.\Generated_Source\PSoC5/ADC_SAR_1.c **** uint8 ADC_SAR_1_initVar = 0u;
  36:.\Generated_Source\PSoC5/ADC_SAR_1.c **** volatile int16 ADC_SAR_1_offset;
  37:.\Generated_Source\PSoC5/ADC_SAR_1.c **** volatile int16 ADC_SAR_1_countsPerVolt;     /* Obsolete Gain compensation */
  38:.\Generated_Source\PSoC5/ADC_SAR_1.c **** volatile int32 ADC_SAR_1_countsPer10Volt;   /* Gain compensation */
  39:.\Generated_Source\PSoC5/ADC_SAR_1.c **** volatile int16 ADC_SAR_1_shift;
  40:.\Generated_Source\PSoC5/ADC_SAR_1.c **** 
  41:.\Generated_Source\PSoC5/ADC_SAR_1.c **** 
  42:.\Generated_Source\PSoC5/ADC_SAR_1.c **** /*******************************************************************************
  43:.\Generated_Source\PSoC5/ADC_SAR_1.c **** * Function Name: ADC_SAR_1_Start
  44:.\Generated_Source\PSoC5/ADC_SAR_1.c **** ********************************************************************************
  45:.\Generated_Source\PSoC5/ADC_SAR_1.c **** *
  46:.\Generated_Source\PSoC5/ADC_SAR_1.c **** * Summary:
  47:.\Generated_Source\PSoC5/ADC_SAR_1.c **** *  This is the preferred method to begin component operation.
  48:.\Generated_Source\PSoC5/ADC_SAR_1.c **** *  ADC_SAR_1_Start() sets the initVar variable, calls the
  49:.\Generated_Source\PSoC5/ADC_SAR_1.c **** *  ADC_SAR_1_Init() function, and then calls the
  50:.\Generated_Source\PSoC5/ADC_SAR_1.c **** *  ADC_SAR_1_Enable() function.
  51:.\Generated_Source\PSoC5/ADC_SAR_1.c **** *
  52:.\Generated_Source\PSoC5/ADC_SAR_1.c **** * Parameters:
  53:.\Generated_Source\PSoC5/ADC_SAR_1.c **** *  None.
  54:.\Generated_Source\PSoC5/ADC_SAR_1.c **** *
  55:.\Generated_Source\PSoC5/ADC_SAR_1.c **** * Return:
  56:.\Generated_Source\PSoC5/ADC_SAR_1.c **** *  None.
  57:.\Generated_Source\PSoC5/ADC_SAR_1.c **** *
  58:.\Generated_Source\PSoC5/ADC_SAR_1.c **** * Global variables:
  59:.\Generated_Source\PSoC5/ADC_SAR_1.c **** *  The ADC_SAR_1_initVar variable is used to indicate when/if initial
  60:.\Generated_Source\PSoC5/ADC_SAR_1.c **** *  configuration of this component has happened. The variable is initialized to
  61:.\Generated_Source\PSoC5/ADC_SAR_1.c **** *  zero and set to 1 the first time ADC_Start() is called. This allows for
  62:.\Generated_Source\PSoC5/ADC_SAR_1.c **** *  component Re-Start without re-initialization in all subsequent calls to the
  63:.\Generated_Source\PSoC5/ADC_SAR_1.c **** *  ADC_SAR_1_Start() routine.
  64:.\Generated_Source\PSoC5/ADC_SAR_1.c **** *  If re-initialization of the component is required the variable should be set
  65:.\Generated_Source\PSoC5/ADC_SAR_1.c **** *  to zero before call of ADC_SAR_1_Start() routine, or the user may call
  66:.\Generated_Source\PSoC5/ADC_SAR_1.c **** *  ADC_SAR_1_Init() and ADC_SAR_1_Enable() as done in the
  67:.\Generated_Source\PSoC5/ADC_SAR_1.c **** *  ADC_SAR_1_Start() routine.
  68:.\Generated_Source\PSoC5/ADC_SAR_1.c **** *
  69:.\Generated_Source\PSoC5/ADC_SAR_1.c **** * Side Effect:
  70:.\Generated_Source\PSoC5/ADC_SAR_1.c **** *  If the initVar variable is already set, this function only calls the
  71:.\Generated_Source\PSoC5/ADC_SAR_1.c **** *  ADC_SAR_1_Enable() function.
  72:.\Generated_Source\PSoC5/ADC_SAR_1.c **** *
  73:.\Generated_Source\PSoC5/ADC_SAR_1.c **** *******************************************************************************/
  74:.\Generated_Source\PSoC5/ADC_SAR_1.c **** void ADC_SAR_1_Start(void)
  75:.\Generated_Source\PSoC5/ADC_SAR_1.c **** {
  76:.\Generated_Source\PSoC5/ADC_SAR_1.c **** 
  77:.\Generated_Source\PSoC5/ADC_SAR_1.c ****     /* If not Initialized then initialize all required hardware and software */
  78:.\Generated_Source\PSoC5/ADC_SAR_1.c ****     if(ADC_SAR_1_initVar == 0u)
  79:.\Generated_Source\PSoC5/ADC_SAR_1.c ****     {
  80:.\Generated_Source\PSoC5/ADC_SAR_1.c ****         ADC_SAR_1_Init();
  81:.\Generated_Source\PSoC5/ADC_SAR_1.c ****         ADC_SAR_1_initVar = 1u;
  82:.\Generated_Source\PSoC5/ADC_SAR_1.c ****     }
  83:.\Generated_Source\PSoC5/ADC_SAR_1.c ****     ADC_SAR_1_Enable();
  84:.\Generated_Source\PSoC5/ADC_SAR_1.c **** }
  85:.\Generated_Source\PSoC5/ADC_SAR_1.c **** 
  86:.\Generated_Source\PSoC5/ADC_SAR_1.c **** 
  87:.\Generated_Source\PSoC5/ADC_SAR_1.c **** /*******************************************************************************
  88:.\Generated_Source\PSoC5/ADC_SAR_1.c **** * Function Name: ADC_SAR_1_Init
  89:.\Generated_Source\PSoC5/ADC_SAR_1.c **** ********************************************************************************
ARM GAS  C:\Users\bwil410\AppData\Local\Temp\cc7k2h9F.s 			page 3


  90:.\Generated_Source\PSoC5/ADC_SAR_1.c **** *
  91:.\Generated_Source\PSoC5/ADC_SAR_1.c **** * Summary:
  92:.\Generated_Source\PSoC5/ADC_SAR_1.c **** *  Initialize component's parameters to the parameters set by user in the
  93:.\Generated_Source\PSoC5/ADC_SAR_1.c **** *  customizer of the component placed onto schematic. Usually called in
  94:.\Generated_Source\PSoC5/ADC_SAR_1.c **** *  ADC_SAR_1_Start().
  95:.\Generated_Source\PSoC5/ADC_SAR_1.c **** *
  96:.\Generated_Source\PSoC5/ADC_SAR_1.c **** * Parameters:
  97:.\Generated_Source\PSoC5/ADC_SAR_1.c **** *  None.
  98:.\Generated_Source\PSoC5/ADC_SAR_1.c **** *
  99:.\Generated_Source\PSoC5/ADC_SAR_1.c **** * Return:
 100:.\Generated_Source\PSoC5/ADC_SAR_1.c **** *  None.
 101:.\Generated_Source\PSoC5/ADC_SAR_1.c **** *
 102:.\Generated_Source\PSoC5/ADC_SAR_1.c **** * Global variables:
 103:.\Generated_Source\PSoC5/ADC_SAR_1.c **** *  The ADC_SAR_1_offset variable is initialized to 0.
 104:.\Generated_Source\PSoC5/ADC_SAR_1.c **** *
 105:.\Generated_Source\PSoC5/ADC_SAR_1.c **** *******************************************************************************/
 106:.\Generated_Source\PSoC5/ADC_SAR_1.c **** void ADC_SAR_1_Init(void)
 107:.\Generated_Source\PSoC5/ADC_SAR_1.c **** {
 108:.\Generated_Source\PSoC5/ADC_SAR_1.c **** 
 109:.\Generated_Source\PSoC5/ADC_SAR_1.c ****     /* This is only valid if there is an internal clock */
 110:.\Generated_Source\PSoC5/ADC_SAR_1.c ****     #if(ADC_SAR_1_DEFAULT_INTERNAL_CLK)
 111:.\Generated_Source\PSoC5/ADC_SAR_1.c ****         ADC_SAR_1_theACLK_SetMode(CYCLK_DUTY);
 112:.\Generated_Source\PSoC5/ADC_SAR_1.c ****     #endif /* End ADC_SAR_1_DEFAULT_INTERNAL_CLK */
 113:.\Generated_Source\PSoC5/ADC_SAR_1.c **** 
 114:.\Generated_Source\PSoC5/ADC_SAR_1.c ****     #if(ADC_SAR_1_IRQ_REMOVE == 0u)
 115:.\Generated_Source\PSoC5/ADC_SAR_1.c ****         /* Start and set interrupt vector */
 116:.\Generated_Source\PSoC5/ADC_SAR_1.c ****         CyIntSetPriority(ADC_SAR_1_INTC_NUMBER, ADC_SAR_1_INTC_PRIOR_NUMBER);
 117:.\Generated_Source\PSoC5/ADC_SAR_1.c ****         (void)CyIntSetVector(ADC_SAR_1_INTC_NUMBER, &ADC_SAR_1_ISR);
 118:.\Generated_Source\PSoC5/ADC_SAR_1.c ****     #endif   /* End ADC_SAR_1_IRQ_REMOVE */
 119:.\Generated_Source\PSoC5/ADC_SAR_1.c **** 
 120:.\Generated_Source\PSoC5/ADC_SAR_1.c ****     /* Enable IRQ mode*/
 121:.\Generated_Source\PSoC5/ADC_SAR_1.c ****     ADC_SAR_1_SAR_CSR1_REG |= ADC_SAR_1_SAR_IRQ_MASK_EN | ADC_SAR_1_SAR_IRQ_MODE_EDGE;
 122:.\Generated_Source\PSoC5/ADC_SAR_1.c **** 
 123:.\Generated_Source\PSoC5/ADC_SAR_1.c ****     /*Set SAR ADC resolution ADC */
 124:.\Generated_Source\PSoC5/ADC_SAR_1.c ****     ADC_SAR_1_SetResolution(ADC_SAR_1_DEFAULT_RESOLUTION);
 125:.\Generated_Source\PSoC5/ADC_SAR_1.c ****     ADC_SAR_1_offset = 0;
 126:.\Generated_Source\PSoC5/ADC_SAR_1.c **** }
 127:.\Generated_Source\PSoC5/ADC_SAR_1.c **** 
 128:.\Generated_Source\PSoC5/ADC_SAR_1.c **** 
 129:.\Generated_Source\PSoC5/ADC_SAR_1.c **** /*******************************************************************************
 130:.\Generated_Source\PSoC5/ADC_SAR_1.c **** * Function Name: ADC_SAR_1_Enable
 131:.\Generated_Source\PSoC5/ADC_SAR_1.c **** ********************************************************************************
 132:.\Generated_Source\PSoC5/ADC_SAR_1.c **** *
 133:.\Generated_Source\PSoC5/ADC_SAR_1.c **** * Summary:
 134:.\Generated_Source\PSoC5/ADC_SAR_1.c **** *  Enables the reference, clock and power for SAR ADC.
 135:.\Generated_Source\PSoC5/ADC_SAR_1.c **** *
 136:.\Generated_Source\PSoC5/ADC_SAR_1.c **** * Parameters:
 137:.\Generated_Source\PSoC5/ADC_SAR_1.c **** *  None.
 138:.\Generated_Source\PSoC5/ADC_SAR_1.c **** *
 139:.\Generated_Source\PSoC5/ADC_SAR_1.c **** * Return:
 140:.\Generated_Source\PSoC5/ADC_SAR_1.c **** *  None.
 141:.\Generated_Source\PSoC5/ADC_SAR_1.c **** *
 142:.\Generated_Source\PSoC5/ADC_SAR_1.c **** *******************************************************************************/
 143:.\Generated_Source\PSoC5/ADC_SAR_1.c **** void ADC_SAR_1_Enable(void)
 144:.\Generated_Source\PSoC5/ADC_SAR_1.c **** {
 145:.\Generated_Source\PSoC5/ADC_SAR_1.c ****     uint8 tmpReg;
 146:.\Generated_Source\PSoC5/ADC_SAR_1.c ****     uint8 enableInterrupts;
ARM GAS  C:\Users\bwil410\AppData\Local\Temp\cc7k2h9F.s 			page 4


 147:.\Generated_Source\PSoC5/ADC_SAR_1.c ****     enableInterrupts = CyEnterCriticalSection();
 148:.\Generated_Source\PSoC5/ADC_SAR_1.c **** 
 149:.\Generated_Source\PSoC5/ADC_SAR_1.c ****     /* Enable the SAR ADC block in Active Power Mode */
 150:.\Generated_Source\PSoC5/ADC_SAR_1.c ****     ADC_SAR_1_PWRMGR_SAR_REG |= ADC_SAR_1_ACT_PWR_SAR_EN;
 151:.\Generated_Source\PSoC5/ADC_SAR_1.c **** 
 152:.\Generated_Source\PSoC5/ADC_SAR_1.c ****      /* Enable the SAR ADC in Standby Power Mode*/
 153:.\Generated_Source\PSoC5/ADC_SAR_1.c ****     ADC_SAR_1_STBY_PWRMGR_SAR_REG |= ADC_SAR_1_STBY_PWR_SAR_EN;
 154:.\Generated_Source\PSoC5/ADC_SAR_1.c **** 
 155:.\Generated_Source\PSoC5/ADC_SAR_1.c ****     /* This is only valid if there is an internal clock */
 156:.\Generated_Source\PSoC5/ADC_SAR_1.c ****     #if(ADC_SAR_1_DEFAULT_INTERNAL_CLK)
 157:.\Generated_Source\PSoC5/ADC_SAR_1.c ****         ADC_SAR_1_PWRMGR_CLK_REG |= ADC_SAR_1_ACT_PWR_CLK_EN;
 158:.\Generated_Source\PSoC5/ADC_SAR_1.c ****         ADC_SAR_1_STBY_PWRMGR_CLK_REG |= ADC_SAR_1_STBY_PWR_CLK_EN;
 159:.\Generated_Source\PSoC5/ADC_SAR_1.c ****     #endif /* End ADC_SAR_1_DEFAULT_INTERNAL_CLK */
 160:.\Generated_Source\PSoC5/ADC_SAR_1.c **** 
 161:.\Generated_Source\PSoC5/ADC_SAR_1.c ****     /* Enable VCM buffer and Enable Int Ref Amp */
 162:.\Generated_Source\PSoC5/ADC_SAR_1.c ****     tmpReg = ADC_SAR_1_SAR_CSR3_REG;
 163:.\Generated_Source\PSoC5/ADC_SAR_1.c ****     tmpReg |= ADC_SAR_1_SAR_EN_BUF_VCM_EN;
 164:.\Generated_Source\PSoC5/ADC_SAR_1.c ****     /* PD_BUF_VREF is OFF in External reference or Vdda reference mode */
 165:.\Generated_Source\PSoC5/ADC_SAR_1.c ****     #if((ADC_SAR_1_DEFAULT_REFERENCE == ADC_SAR_1__EXT_REF) || \
 166:.\Generated_Source\PSoC5/ADC_SAR_1.c ****         (ADC_SAR_1_DEFAULT_RANGE == ADC_SAR_1__VNEG_VDDA_DIFF))
 167:.\Generated_Source\PSoC5/ADC_SAR_1.c ****         tmpReg &= (uint8)~ADC_SAR_1_SAR_EN_BUF_VREF_EN;
 168:.\Generated_Source\PSoC5/ADC_SAR_1.c ****     #else /* In INTREF or INTREF Bypassed this buffer is ON */
 169:.\Generated_Source\PSoC5/ADC_SAR_1.c ****         tmpReg |= ADC_SAR_1_SAR_EN_BUF_VREF_EN;
 170:.\Generated_Source\PSoC5/ADC_SAR_1.c ****     #endif /* ADC_SAR_1_DEFAULT_REFERENCE == ADC_SAR_1__EXT_REF */
 171:.\Generated_Source\PSoC5/ADC_SAR_1.c ****     ADC_SAR_1_SAR_CSR3_REG = tmpReg;
 172:.\Generated_Source\PSoC5/ADC_SAR_1.c **** 
 173:.\Generated_Source\PSoC5/ADC_SAR_1.c ****     /* Set reference for ADC */
 174:.\Generated_Source\PSoC5/ADC_SAR_1.c ****     #if(ADC_SAR_1_DEFAULT_RANGE == ADC_SAR_1__VNEG_VDDA_DIFF)
 175:.\Generated_Source\PSoC5/ADC_SAR_1.c ****         #if(ADC_SAR_1_DEFAULT_REFERENCE == ADC_SAR_1__EXT_REF)
 176:.\Generated_Source\PSoC5/ADC_SAR_1.c ****             ADC_SAR_1_SAR_CSR6_REG = ADC_SAR_1_INT_BYPASS_EXT_VREF; /* S2 */
 177:.\Generated_Source\PSoC5/ADC_SAR_1.c ****         #else /* Internal Vdda reference or obsolete bypass mode */
 178:.\Generated_Source\PSoC5/ADC_SAR_1.c ****             ADC_SAR_1_SAR_CSR6_REG = ADC_SAR_1_VDDA_VREF;           /* S7 */
 179:.\Generated_Source\PSoC5/ADC_SAR_1.c ****         #endif /* ADC_SAR_1_DEFAULT_REFERENCE == ADC_SAR_1__EXT_REF */
 180:.\Generated_Source\PSoC5/ADC_SAR_1.c ****     #else  /* Reference goes through internal buffer */
 181:.\Generated_Source\PSoC5/ADC_SAR_1.c ****         #if(ADC_SAR_1_DEFAULT_REFERENCE == ADC_SAR_1__INT_REF_NOT_BYPASSED)
 182:.\Generated_Source\PSoC5/ADC_SAR_1.c ****             ADC_SAR_1_SAR_CSR6_REG = ADC_SAR_1_INT_VREF;            /* S3 + S4 */
 183:.\Generated_Source\PSoC5/ADC_SAR_1.c ****         #else /* INTREF Bypassed of External */
 184:.\Generated_Source\PSoC5/ADC_SAR_1.c ****             ADC_SAR_1_SAR_CSR6_REG = ADC_SAR_1_INT_BYPASS_EXT_VREF; /* S2 */
 185:.\Generated_Source\PSoC5/ADC_SAR_1.c ****         #endif /* ADC_SAR_1_DEFAULT_REFERENCE == ADC_SAR_1__INT_REF_NOT_BYPASSED */
 186:.\Generated_Source\PSoC5/ADC_SAR_1.c ****     #endif /* VNEG_VDDA_DIFF */
 187:.\Generated_Source\PSoC5/ADC_SAR_1.c **** 
 188:.\Generated_Source\PSoC5/ADC_SAR_1.c ****     /* Low non-overlap delay for sampling clock signals (for 1MSPS) */
 189:.\Generated_Source\PSoC5/ADC_SAR_1.c ****     #if(ADC_SAR_1_HIGH_POWER_PULSE == 0u) /* MinPulseWidth <= 50 ns */
 190:.\Generated_Source\PSoC5/ADC_SAR_1.c ****         ADC_SAR_1_SAR_CSR5_REG &= (uint8)~ADC_SAR_1_SAR_DLY_INC;
 191:.\Generated_Source\PSoC5/ADC_SAR_1.c ****     #else /* Set High non-overlap delay for sampling clock signals (for <500KSPS)*/
 192:.\Generated_Source\PSoC5/ADC_SAR_1.c ****         ADC_SAR_1_SAR_CSR5_REG |= ADC_SAR_1_SAR_DLY_INC;
 193:.\Generated_Source\PSoC5/ADC_SAR_1.c ****     #endif /* ADC_SAR_1_HIGH_POWER_PULSE == 0u */
 194:.\Generated_Source\PSoC5/ADC_SAR_1.c **** 
 195:.\Generated_Source\PSoC5/ADC_SAR_1.c ****     /* Increase comparator latch enable delay by 20%, 
 196:.\Generated_Source\PSoC5/ADC_SAR_1.c ****     *  Increase comparator bias current by 30% without impacting delaysDelay 
 197:.\Generated_Source\PSoC5/ADC_SAR_1.c ****     *  Default for 1MSPS) 
 198:.\Generated_Source\PSoC5/ADC_SAR_1.c ****     */
 199:.\Generated_Source\PSoC5/ADC_SAR_1.c ****     #if(ADC_SAR_1_HIGH_POWER_PULSE == 0u)    /* MinPulseWidth <= 50 ns */
 200:.\Generated_Source\PSoC5/ADC_SAR_1.c ****         ADC_SAR_1_SAR_CSR5_REG |= ADC_SAR_1_SAR_SEL_CSEL_DFT_CHAR;
 201:.\Generated_Source\PSoC5/ADC_SAR_1.c ****     #else /* for <500ksps */
 202:.\Generated_Source\PSoC5/ADC_SAR_1.c ****         ADC_SAR_1_SAR_CSR5_REG &= (uint8)~ADC_SAR_1_SAR_SEL_CSEL_DFT_CHAR;
 203:.\Generated_Source\PSoC5/ADC_SAR_1.c ****     #endif /* ADC_SAR_1_HIGH_POWER_PULSE == 0u */
ARM GAS  C:\Users\bwil410\AppData\Local\Temp\cc7k2h9F.s 			page 5


 204:.\Generated_Source\PSoC5/ADC_SAR_1.c **** 
 205:.\Generated_Source\PSoC5/ADC_SAR_1.c ****     /* Set default power and other configurations for control register 0 in multiple lines */
 206:.\Generated_Source\PSoC5/ADC_SAR_1.c ****     ADC_SAR_1_SAR_CSR0_REG = (uint8)((uint8)ADC_SAR_1_DEFAULT_POWER << ADC_SAR_1_SAR_POWER_SHIFT)
 207:.\Generated_Source\PSoC5/ADC_SAR_1.c ****     /* SAR_HIZ_CLEAR:   Should not be used for LP */
 208:.\Generated_Source\PSoC5/ADC_SAR_1.c ****     #if ((CY_PSOC5LP) || (ADC_SAR_1_DEFAULT_REFERENCE != ADC_SAR_1__EXT_REF))
 209:.\Generated_Source\PSoC5/ADC_SAR_1.c ****         | ADC_SAR_1_SAR_HIZ_CLEAR
 210:.\Generated_Source\PSoC5/ADC_SAR_1.c ****     #endif /* SAR_HIZ_CLEAR */
 211:.\Generated_Source\PSoC5/ADC_SAR_1.c ****     /*Set Convertion mode */
 212:.\Generated_Source\PSoC5/ADC_SAR_1.c ****     #if(ADC_SAR_1_DEFAULT_CONV_MODE != ADC_SAR_1__FREE_RUNNING)      /* If triggered mode */
 213:.\Generated_Source\PSoC5/ADC_SAR_1.c ****         | ADC_SAR_1_SAR_MX_SOF_UDB           /* source: UDB */
 214:.\Generated_Source\PSoC5/ADC_SAR_1.c ****         | ADC_SAR_1_SAR_SOF_MODE_EDGE        /* Set edge-sensitive sof source */
 215:.\Generated_Source\PSoC5/ADC_SAR_1.c ****     #endif /* ADC_SAR_1_DEFAULT_CONV_MODE */
 216:.\Generated_Source\PSoC5/ADC_SAR_1.c ****     ; /* end of multiple line initialization */
 217:.\Generated_Source\PSoC5/ADC_SAR_1.c **** 
 218:.\Generated_Source\PSoC5/ADC_SAR_1.c ****     ADC_SAR_1_SAR_TR0_REG = ADC_SAR_1_SAR_CAP_TRIM_2;
 219:.\Generated_Source\PSoC5/ADC_SAR_1.c **** 
 220:.\Generated_Source\PSoC5/ADC_SAR_1.c ****     /* Enable clock for SAR ADC*/
 221:.\Generated_Source\PSoC5/ADC_SAR_1.c ****     ADC_SAR_1_SAR_CLK_REG |= ADC_SAR_1_SAR_MX_CLK_EN;
 222:.\Generated_Source\PSoC5/ADC_SAR_1.c **** 
 223:.\Generated_Source\PSoC5/ADC_SAR_1.c ****     CyDelayUs(10u); /* The block is ready to use 10 us after the enable signal is set high. */
 224:.\Generated_Source\PSoC5/ADC_SAR_1.c **** 
 225:.\Generated_Source\PSoC5/ADC_SAR_1.c ****     #if(ADC_SAR_1_IRQ_REMOVE == 0u)
 226:.\Generated_Source\PSoC5/ADC_SAR_1.c ****         /* Clear a pending interrupt */
 227:.\Generated_Source\PSoC5/ADC_SAR_1.c ****         CyIntClearPending(ADC_SAR_1_INTC_NUMBER);
 228:.\Generated_Source\PSoC5/ADC_SAR_1.c ****     #endif   /* End ADC_SAR_1_IRQ_REMOVE */
 229:.\Generated_Source\PSoC5/ADC_SAR_1.c **** 
 230:.\Generated_Source\PSoC5/ADC_SAR_1.c ****     CyExitCriticalSection(enableInterrupts);
 231:.\Generated_Source\PSoC5/ADC_SAR_1.c **** }
 232:.\Generated_Source\PSoC5/ADC_SAR_1.c **** 
 233:.\Generated_Source\PSoC5/ADC_SAR_1.c **** 
 234:.\Generated_Source\PSoC5/ADC_SAR_1.c **** /*******************************************************************************
 235:.\Generated_Source\PSoC5/ADC_SAR_1.c **** * Function Name: ADC_SAR_1_Stop
 236:.\Generated_Source\PSoC5/ADC_SAR_1.c **** ********************************************************************************
 237:.\Generated_Source\PSoC5/ADC_SAR_1.c **** *
 238:.\Generated_Source\PSoC5/ADC_SAR_1.c **** * Summary:
 239:.\Generated_Source\PSoC5/ADC_SAR_1.c **** *  Stops ADC conversions and puts the ADC into its lowest power mode.
 240:.\Generated_Source\PSoC5/ADC_SAR_1.c **** *
 241:.\Generated_Source\PSoC5/ADC_SAR_1.c **** * Parameters:
 242:.\Generated_Source\PSoC5/ADC_SAR_1.c **** *  None.
 243:.\Generated_Source\PSoC5/ADC_SAR_1.c **** *
 244:.\Generated_Source\PSoC5/ADC_SAR_1.c **** * Return:
 245:.\Generated_Source\PSoC5/ADC_SAR_1.c **** *  None.
 246:.\Generated_Source\PSoC5/ADC_SAR_1.c **** *
 247:.\Generated_Source\PSoC5/ADC_SAR_1.c **** *******************************************************************************/
 248:.\Generated_Source\PSoC5/ADC_SAR_1.c **** void ADC_SAR_1_Stop(void)
 249:.\Generated_Source\PSoC5/ADC_SAR_1.c **** {
 250:.\Generated_Source\PSoC5/ADC_SAR_1.c ****     uint8 enableInterrupts;
 251:.\Generated_Source\PSoC5/ADC_SAR_1.c ****     enableInterrupts = CyEnterCriticalSection();
 252:.\Generated_Source\PSoC5/ADC_SAR_1.c **** 
 253:.\Generated_Source\PSoC5/ADC_SAR_1.c ****     /* Stop all conversions */
 254:.\Generated_Source\PSoC5/ADC_SAR_1.c ****     ADC_SAR_1_SAR_CSR0_REG &= (uint8)~ADC_SAR_1_SAR_SOF_START_CONV;
 255:.\Generated_Source\PSoC5/ADC_SAR_1.c ****     /* Disable the SAR ADC block in Active Power Mode */
 256:.\Generated_Source\PSoC5/ADC_SAR_1.c ****     ADC_SAR_1_PWRMGR_SAR_REG &= (uint8)~ADC_SAR_1_ACT_PWR_SAR_EN;
 257:.\Generated_Source\PSoC5/ADC_SAR_1.c ****     /* Disable the SAR ADC in Standby Power Mode */
 258:.\Generated_Source\PSoC5/ADC_SAR_1.c ****     ADC_SAR_1_STBY_PWRMGR_SAR_REG &= (uint8)~ADC_SAR_1_STBY_PWR_SAR_EN;
 259:.\Generated_Source\PSoC5/ADC_SAR_1.c **** 
 260:.\Generated_Source\PSoC5/ADC_SAR_1.c ****     /* This is only valid if there is an internal clock */
ARM GAS  C:\Users\bwil410\AppData\Local\Temp\cc7k2h9F.s 			page 6


 261:.\Generated_Source\PSoC5/ADC_SAR_1.c ****     #if(ADC_SAR_1_DEFAULT_INTERNAL_CLK)
 262:.\Generated_Source\PSoC5/ADC_SAR_1.c ****         ADC_SAR_1_PWRMGR_CLK_REG &= (uint8)~ADC_SAR_1_ACT_PWR_CLK_EN;
 263:.\Generated_Source\PSoC5/ADC_SAR_1.c ****         ADC_SAR_1_STBY_PWRMGR_CLK_REG &= (uint8)~ADC_SAR_1_STBY_PWR_CLK_EN;
 264:.\Generated_Source\PSoC5/ADC_SAR_1.c ****     #endif /* End ADC_SAR_1_DEFAULT_INTERNAL_CLK */
 265:.\Generated_Source\PSoC5/ADC_SAR_1.c **** 
 266:.\Generated_Source\PSoC5/ADC_SAR_1.c ****     CyExitCriticalSection(enableInterrupts);
 267:.\Generated_Source\PSoC5/ADC_SAR_1.c **** 
 268:.\Generated_Source\PSoC5/ADC_SAR_1.c **** }
 269:.\Generated_Source\PSoC5/ADC_SAR_1.c **** 
 270:.\Generated_Source\PSoC5/ADC_SAR_1.c **** 
 271:.\Generated_Source\PSoC5/ADC_SAR_1.c **** /*******************************************************************************
 272:.\Generated_Source\PSoC5/ADC_SAR_1.c **** * Function Name: ADC_SAR_1_SetPower
 273:.\Generated_Source\PSoC5/ADC_SAR_1.c **** ********************************************************************************
 274:.\Generated_Source\PSoC5/ADC_SAR_1.c **** *
 275:.\Generated_Source\PSoC5/ADC_SAR_1.c **** * Summary:
 276:.\Generated_Source\PSoC5/ADC_SAR_1.c **** *  Sets the operational power of the ADC. You should use the higher power
 277:.\Generated_Source\PSoC5/ADC_SAR_1.c **** *  settings with faster clock speeds.
 278:.\Generated_Source\PSoC5/ADC_SAR_1.c **** *
 279:.\Generated_Source\PSoC5/ADC_SAR_1.c **** * Parameters:
 280:.\Generated_Source\PSoC5/ADC_SAR_1.c **** *  power:  Power setting for ADC
 281:.\Generated_Source\PSoC5/ADC_SAR_1.c **** *  0 ->    Normal
 282:.\Generated_Source\PSoC5/ADC_SAR_1.c **** *  1 ->    Medium power
 283:.\Generated_Source\PSoC5/ADC_SAR_1.c **** *  2 ->    1.25 power
 284:.\Generated_Source\PSoC5/ADC_SAR_1.c **** *  3 ->    Minimum power.
 285:.\Generated_Source\PSoC5/ADC_SAR_1.c **** *
 286:.\Generated_Source\PSoC5/ADC_SAR_1.c **** * Return:
 287:.\Generated_Source\PSoC5/ADC_SAR_1.c **** *  None.
 288:.\Generated_Source\PSoC5/ADC_SAR_1.c **** *
 289:.\Generated_Source\PSoC5/ADC_SAR_1.c **** *******************************************************************************/
 290:.\Generated_Source\PSoC5/ADC_SAR_1.c **** void ADC_SAR_1_SetPower(uint8 power)
 291:.\Generated_Source\PSoC5/ADC_SAR_1.c **** {
 292:.\Generated_Source\PSoC5/ADC_SAR_1.c ****     uint8 tmpReg;
 293:.\Generated_Source\PSoC5/ADC_SAR_1.c **** 
 294:.\Generated_Source\PSoC5/ADC_SAR_1.c ****     /* mask off invalid power settings */
 295:.\Generated_Source\PSoC5/ADC_SAR_1.c ****     power &= ADC_SAR_1_SAR_API_POWER_MASK;
 296:.\Generated_Source\PSoC5/ADC_SAR_1.c **** 
 297:.\Generated_Source\PSoC5/ADC_SAR_1.c ****     /* Set Power parameter  */
 298:.\Generated_Source\PSoC5/ADC_SAR_1.c ****     tmpReg = ADC_SAR_1_SAR_CSR0_REG & (uint8)~ADC_SAR_1_SAR_POWER_MASK;
 299:.\Generated_Source\PSoC5/ADC_SAR_1.c ****     tmpReg |= (uint8)(power << ADC_SAR_1_SAR_POWER_SHIFT);
 300:.\Generated_Source\PSoC5/ADC_SAR_1.c ****     ADC_SAR_1_SAR_CSR0_REG = tmpReg;
 301:.\Generated_Source\PSoC5/ADC_SAR_1.c **** }
 302:.\Generated_Source\PSoC5/ADC_SAR_1.c **** 
 303:.\Generated_Source\PSoC5/ADC_SAR_1.c **** 
 304:.\Generated_Source\PSoC5/ADC_SAR_1.c **** /*******************************************************************************
 305:.\Generated_Source\PSoC5/ADC_SAR_1.c **** * Function Name: ADC_SAR_1_SetResolution
 306:.\Generated_Source\PSoC5/ADC_SAR_1.c **** ********************************************************************************
 307:.\Generated_Source\PSoC5/ADC_SAR_1.c **** *
 308:.\Generated_Source\PSoC5/ADC_SAR_1.c **** * Summary:
 309:.\Generated_Source\PSoC5/ADC_SAR_1.c **** *  Sets the Relution of the SAR.
 310:.\Generated_Source\PSoC5/ADC_SAR_1.c **** *
 311:.\Generated_Source\PSoC5/ADC_SAR_1.c **** * Parameters:
 312:.\Generated_Source\PSoC5/ADC_SAR_1.c **** *  resolution:
 313:.\Generated_Source\PSoC5/ADC_SAR_1.c **** *  12 ->    RES12
 314:.\Generated_Source\PSoC5/ADC_SAR_1.c **** *  10 ->    RES10
 315:.\Generated_Source\PSoC5/ADC_SAR_1.c **** *  8  ->    RES8
 316:.\Generated_Source\PSoC5/ADC_SAR_1.c **** *
 317:.\Generated_Source\PSoC5/ADC_SAR_1.c **** * Return:
ARM GAS  C:\Users\bwil410\AppData\Local\Temp\cc7k2h9F.s 			page 7


 318:.\Generated_Source\PSoC5/ADC_SAR_1.c **** *  None.
 319:.\Generated_Source\PSoC5/ADC_SAR_1.c **** *
 320:.\Generated_Source\PSoC5/ADC_SAR_1.c **** * Side Effects:
 321:.\Generated_Source\PSoC5/ADC_SAR_1.c **** *  The ADC resolution cannot be changed during a conversion cycle. The
 322:.\Generated_Source\PSoC5/ADC_SAR_1.c **** *  recommended best practice is to stop conversions with
 323:.\Generated_Source\PSoC5/ADC_SAR_1.c **** *  ADC_StopConvert(), change the resolution, then restart the
 324:.\Generated_Source\PSoC5/ADC_SAR_1.c **** *  conversions with ADC_StartConvert().
 325:.\Generated_Source\PSoC5/ADC_SAR_1.c **** *  If you decide not to stop conversions before calling this API, you
 326:.\Generated_Source\PSoC5/ADC_SAR_1.c **** *  should use ADC_IsEndConversion() to wait until conversion is complete
 327:.\Generated_Source\PSoC5/ADC_SAR_1.c **** *  before changing the resolution.
 328:.\Generated_Source\PSoC5/ADC_SAR_1.c **** *  If you call ADC_SetResolution() during a conversion, the resolution will
 329:.\Generated_Source\PSoC5/ADC_SAR_1.c **** *  not be changed until the current conversion is complete. Data will not be
 330:.\Generated_Source\PSoC5/ADC_SAR_1.c **** *  available in the new resolution for another 6 + "New Resolution(in bits)"
 331:.\Generated_Source\PSoC5/ADC_SAR_1.c **** *  clock cycles.
 332:.\Generated_Source\PSoC5/ADC_SAR_1.c **** *  You may need add a delay of this number of clock cycles after
 333:.\Generated_Source\PSoC5/ADC_SAR_1.c **** *  ADC_SetResolution() is called before data is valid again.
 334:.\Generated_Source\PSoC5/ADC_SAR_1.c **** *  Affects ADC_CountsTo_Volts(), ADC_CountsTo_mVolts(), and
 335:.\Generated_Source\PSoC5/ADC_SAR_1.c **** *  ADC_CountsTo_uVolts() by calculating the correct conversion between ADC
 336:.\Generated_Source\PSoC5/ADC_SAR_1.c **** *  counts and the applied input voltage. Calculation depends on resolution,
 337:.\Generated_Source\PSoC5/ADC_SAR_1.c **** *  input range, and voltage reference.
 338:.\Generated_Source\PSoC5/ADC_SAR_1.c **** *
 339:.\Generated_Source\PSoC5/ADC_SAR_1.c **** *******************************************************************************/
 340:.\Generated_Source\PSoC5/ADC_SAR_1.c **** void ADC_SAR_1_SetResolution(uint8 resolution)
 341:.\Generated_Source\PSoC5/ADC_SAR_1.c **** {
 342:.\Generated_Source\PSoC5/ADC_SAR_1.c ****     uint8 tmpReg;
 343:.\Generated_Source\PSoC5/ADC_SAR_1.c **** 
 344:.\Generated_Source\PSoC5/ADC_SAR_1.c ****     /* Set SAR ADC resolution and sample width: 18 conversion cycles at 12bits + 1 gap */
 345:.\Generated_Source\PSoC5/ADC_SAR_1.c ****     switch (resolution)
 346:.\Generated_Source\PSoC5/ADC_SAR_1.c ****     {
 347:.\Generated_Source\PSoC5/ADC_SAR_1.c ****         case (uint8)ADC_SAR_1__BITS_12:
 348:.\Generated_Source\PSoC5/ADC_SAR_1.c ****             tmpReg = ADC_SAR_1_SAR_RESOLUTION_12BIT | ADC_SAR_1_SAR_SAMPLE_WIDTH;
 349:.\Generated_Source\PSoC5/ADC_SAR_1.c ****             break;
 350:.\Generated_Source\PSoC5/ADC_SAR_1.c ****         case (uint8)ADC_SAR_1__BITS_10:
 351:.\Generated_Source\PSoC5/ADC_SAR_1.c ****             tmpReg = ADC_SAR_1_SAR_RESOLUTION_10BIT | ADC_SAR_1_SAR_SAMPLE_WIDTH;
 352:.\Generated_Source\PSoC5/ADC_SAR_1.c ****             break;
 353:.\Generated_Source\PSoC5/ADC_SAR_1.c ****         case (uint8)ADC_SAR_1__BITS_8:
 354:.\Generated_Source\PSoC5/ADC_SAR_1.c ****             tmpReg = ADC_SAR_1_SAR_RESOLUTION_8BIT | ADC_SAR_1_SAR_SAMPLE_WIDTH;
 355:.\Generated_Source\PSoC5/ADC_SAR_1.c ****             break;
 356:.\Generated_Source\PSoC5/ADC_SAR_1.c ****         default:
 357:.\Generated_Source\PSoC5/ADC_SAR_1.c ****             tmpReg = ADC_SAR_1_SAR_RESOLUTION_12BIT | ADC_SAR_1_SAR_SAMPLE_WIDTH;
 358:.\Generated_Source\PSoC5/ADC_SAR_1.c ****             /* Halt CPU in debug mode if resolution is out of valid range */
 359:.\Generated_Source\PSoC5/ADC_SAR_1.c ****             CYASSERT(0u != 0u);
 360:.\Generated_Source\PSoC5/ADC_SAR_1.c ****             break;
 361:.\Generated_Source\PSoC5/ADC_SAR_1.c ****     }
 362:.\Generated_Source\PSoC5/ADC_SAR_1.c ****     ADC_SAR_1_SAR_CSR2_REG = tmpReg;
 363:.\Generated_Source\PSoC5/ADC_SAR_1.c **** 
 364:.\Generated_Source\PSoC5/ADC_SAR_1.c ****      /* Calculate gain for convert counts to volts */
 365:.\Generated_Source\PSoC5/ADC_SAR_1.c ****     ADC_SAR_1_CalcGain(resolution);
 366:.\Generated_Source\PSoC5/ADC_SAR_1.c **** }
 367:.\Generated_Source\PSoC5/ADC_SAR_1.c **** 
 368:.\Generated_Source\PSoC5/ADC_SAR_1.c **** 
 369:.\Generated_Source\PSoC5/ADC_SAR_1.c **** #if(ADC_SAR_1_DEFAULT_CONV_MODE != ADC_SAR_1__HARDWARE_TRIGGER)
 370:.\Generated_Source\PSoC5/ADC_SAR_1.c **** 
 371:.\Generated_Source\PSoC5/ADC_SAR_1.c **** 
 372:.\Generated_Source\PSoC5/ADC_SAR_1.c ****     /*******************************************************************************
 373:.\Generated_Source\PSoC5/ADC_SAR_1.c ****     * Function Name: ADC_SAR_1_StartConvert
 374:.\Generated_Source\PSoC5/ADC_SAR_1.c ****     ********************************************************************************
ARM GAS  C:\Users\bwil410\AppData\Local\Temp\cc7k2h9F.s 			page 8


 375:.\Generated_Source\PSoC5/ADC_SAR_1.c ****     *
 376:.\Generated_Source\PSoC5/ADC_SAR_1.c ****     * Summary:
 377:.\Generated_Source\PSoC5/ADC_SAR_1.c ****     *  Forces the ADC to initiate a conversion. In free-running mode, the ADC runs
 378:.\Generated_Source\PSoC5/ADC_SAR_1.c ****     *  continuously. In software trigger mode, the function also acts as a software
 379:.\Generated_Source\PSoC5/ADC_SAR_1.c ****     *  version of the SOC and every conversion must be triggered by
 380:.\Generated_Source\PSoC5/ADC_SAR_1.c ****     *  ADC_SAR_1_StartConvert(). This function is not available when the
 381:.\Generated_Source\PSoC5/ADC_SAR_1.c ****     *  Hardware Trigger sample mode is selected.
 382:.\Generated_Source\PSoC5/ADC_SAR_1.c ****     *
 383:.\Generated_Source\PSoC5/ADC_SAR_1.c ****     * Parameters:
 384:.\Generated_Source\PSoC5/ADC_SAR_1.c ****     *  None.
 385:.\Generated_Source\PSoC5/ADC_SAR_1.c ****     *
 386:.\Generated_Source\PSoC5/ADC_SAR_1.c ****     * Return:
 387:.\Generated_Source\PSoC5/ADC_SAR_1.c ****     *  None.
 388:.\Generated_Source\PSoC5/ADC_SAR_1.c ****     *
 389:.\Generated_Source\PSoC5/ADC_SAR_1.c ****     * Theory:
 390:.\Generated_Source\PSoC5/ADC_SAR_1.c ****     *  Forces the ADC to initiate a conversion. In Free Running mode, the ADC will
 391:.\Generated_Source\PSoC5/ADC_SAR_1.c ****     *  run continuously. In a software trigger mode the function also acts as a
 392:.\Generated_Source\PSoC5/ADC_SAR_1.c ****     *  software version of the SOC. Here every conversion has to be triggered by
 393:.\Generated_Source\PSoC5/ADC_SAR_1.c ****     *  the routine. This writes into the SOC bit in SAR_CTRL reg.
 394:.\Generated_Source\PSoC5/ADC_SAR_1.c ****     *
 395:.\Generated_Source\PSoC5/ADC_SAR_1.c ****     * Side Effects:
 396:.\Generated_Source\PSoC5/ADC_SAR_1.c ****     *  In a software trigger mode the function switches source for SOF from the
 397:.\Generated_Source\PSoC5/ADC_SAR_1.c ****     *  external pin to the internal SOF generation. Application should not call
 398:.\Generated_Source\PSoC5/ADC_SAR_1.c ****     *  StartConvert if external source used for SOF.
 399:.\Generated_Source\PSoC5/ADC_SAR_1.c ****     *
 400:.\Generated_Source\PSoC5/ADC_SAR_1.c ****     *******************************************************************************/
 401:.\Generated_Source\PSoC5/ADC_SAR_1.c ****     void ADC_SAR_1_StartConvert(void)
 402:.\Generated_Source\PSoC5/ADC_SAR_1.c ****     {
 403:.\Generated_Source\PSoC5/ADC_SAR_1.c ****         #if(ADC_SAR_1_DEFAULT_CONV_MODE != ADC_SAR_1__FREE_RUNNING)  /* If software triggered mode 
 404:.\Generated_Source\PSoC5/ADC_SAR_1.c ****             ADC_SAR_1_SAR_CSR0_REG &= (uint8)~ADC_SAR_1_SAR_MX_SOF_UDB;   /* source: SOF bit */
 405:.\Generated_Source\PSoC5/ADC_SAR_1.c ****         #endif /* End ADC_SAR_1_DEFAULT_CONV_MODE */
 406:.\Generated_Source\PSoC5/ADC_SAR_1.c **** 
 407:.\Generated_Source\PSoC5/ADC_SAR_1.c ****         /* Start the conversion */
 408:.\Generated_Source\PSoC5/ADC_SAR_1.c ****         ADC_SAR_1_SAR_CSR0_REG |= ADC_SAR_1_SAR_SOF_START_CONV;
 409:.\Generated_Source\PSoC5/ADC_SAR_1.c ****     }
 410:.\Generated_Source\PSoC5/ADC_SAR_1.c **** 
 411:.\Generated_Source\PSoC5/ADC_SAR_1.c **** 
 412:.\Generated_Source\PSoC5/ADC_SAR_1.c ****     /*******************************************************************************
 413:.\Generated_Source\PSoC5/ADC_SAR_1.c ****     * Function Name: ADC_SAR_1_StopConvert
 414:.\Generated_Source\PSoC5/ADC_SAR_1.c ****     ********************************************************************************
 415:.\Generated_Source\PSoC5/ADC_SAR_1.c ****     *
 416:.\Generated_Source\PSoC5/ADC_SAR_1.c ****     * Summary:
 417:.\Generated_Source\PSoC5/ADC_SAR_1.c ****     *  Forces the ADC to stop conversions. If a conversion is currently executing,
 418:.\Generated_Source\PSoC5/ADC_SAR_1.c ****     *  that conversion will complete, but no further conversions will occur. This
 419:.\Generated_Source\PSoC5/ADC_SAR_1.c ****     *  function is not available when the Hardware Trigger sample mode is selected.
 420:.\Generated_Source\PSoC5/ADC_SAR_1.c ****     *
 421:.\Generated_Source\PSoC5/ADC_SAR_1.c ****     * Parameters:
 422:.\Generated_Source\PSoC5/ADC_SAR_1.c ****     *  None.
 423:.\Generated_Source\PSoC5/ADC_SAR_1.c ****     *
 424:.\Generated_Source\PSoC5/ADC_SAR_1.c ****     * Return:
 425:.\Generated_Source\PSoC5/ADC_SAR_1.c ****     *  None.
 426:.\Generated_Source\PSoC5/ADC_SAR_1.c ****     *
 427:.\Generated_Source\PSoC5/ADC_SAR_1.c ****     * Theory:
 428:.\Generated_Source\PSoC5/ADC_SAR_1.c ****     *  Stops ADC conversion in Free Running mode.
 429:.\Generated_Source\PSoC5/ADC_SAR_1.c ****     *
 430:.\Generated_Source\PSoC5/ADC_SAR_1.c ****     * Side Effects:
 431:.\Generated_Source\PSoC5/ADC_SAR_1.c ****     *  In Software Trigger sample mode, this function sets a software version of the
ARM GAS  C:\Users\bwil410\AppData\Local\Temp\cc7k2h9F.s 			page 9


 432:.\Generated_Source\PSoC5/ADC_SAR_1.c ****     *  SOC to low level and switches the SOC source to hardware SOC input.
 433:.\Generated_Source\PSoC5/ADC_SAR_1.c ****     *
 434:.\Generated_Source\PSoC5/ADC_SAR_1.c ****     *******************************************************************************/
 435:.\Generated_Source\PSoC5/ADC_SAR_1.c ****     void ADC_SAR_1_StopConvert(void)
 436:.\Generated_Source\PSoC5/ADC_SAR_1.c ****     {
 437:.\Generated_Source\PSoC5/ADC_SAR_1.c ****         /* Stop all conversions */
 438:.\Generated_Source\PSoC5/ADC_SAR_1.c ****         ADC_SAR_1_SAR_CSR0_REG &= (uint8)~ADC_SAR_1_SAR_SOF_START_CONV;
 439:.\Generated_Source\PSoC5/ADC_SAR_1.c **** 
 440:.\Generated_Source\PSoC5/ADC_SAR_1.c ****         #if(ADC_SAR_1_DEFAULT_CONV_MODE != ADC_SAR_1__FREE_RUNNING)  /* If software triggered mode 
 441:.\Generated_Source\PSoC5/ADC_SAR_1.c ****             /* Return source to UDB for hardware SOF signal */
 442:.\Generated_Source\PSoC5/ADC_SAR_1.c ****             ADC_SAR_1_SAR_CSR0_REG |= ADC_SAR_1_SAR_MX_SOF_UDB;    /* source: UDB */
 443:.\Generated_Source\PSoC5/ADC_SAR_1.c ****         #endif /* End ADC_SAR_1_DEFAULT_CONV_MODE */
 444:.\Generated_Source\PSoC5/ADC_SAR_1.c **** 
 445:.\Generated_Source\PSoC5/ADC_SAR_1.c ****     }
 446:.\Generated_Source\PSoC5/ADC_SAR_1.c **** 
 447:.\Generated_Source\PSoC5/ADC_SAR_1.c **** #endif /* End ADC_SAR_1_DEFAULT_CONV_MODE != ADC_SAR_1__HARDWARE_TRIGGER */
 448:.\Generated_Source\PSoC5/ADC_SAR_1.c **** 
 449:.\Generated_Source\PSoC5/ADC_SAR_1.c **** 
 450:.\Generated_Source\PSoC5/ADC_SAR_1.c **** /*******************************************************************************
 451:.\Generated_Source\PSoC5/ADC_SAR_1.c **** * Function Name: ADC_SAR_1_IsEndConversion
 452:.\Generated_Source\PSoC5/ADC_SAR_1.c **** ********************************************************************************
 453:.\Generated_Source\PSoC5/ADC_SAR_1.c **** *
 454:.\Generated_Source\PSoC5/ADC_SAR_1.c **** * Summary:
 455:.\Generated_Source\PSoC5/ADC_SAR_1.c **** *  Immediately returns the status of the conversion or does not return
 456:.\Generated_Source\PSoC5/ADC_SAR_1.c **** *  (blocking) until the conversion completes, depending on the retMode
 457:.\Generated_Source\PSoC5/ADC_SAR_1.c **** *  parameter.
 458:.\Generated_Source\PSoC5/ADC_SAR_1.c **** *
 459:.\Generated_Source\PSoC5/ADC_SAR_1.c **** * Parameters:
 460:.\Generated_Source\PSoC5/ADC_SAR_1.c **** *  retMode:  Check conversion return mode.
 461:.\Generated_Source\PSoC5/ADC_SAR_1.c **** *   ADC_SAR_1_RETURN_STATUS: Immediately returns the status. If the
 462:.\Generated_Source\PSoC5/ADC_SAR_1.c **** *     value returned is zero, the conversion is not complete, and this function
 463:.\Generated_Source\PSoC5/ADC_SAR_1.c **** *     should be retried until a nonzero result is returned.
 464:.\Generated_Source\PSoC5/ADC_SAR_1.c **** *   ADC_SAR_1_WAIT_FOR_RESULT: Does not return a result until the ADC
 465:.\Generated_Source\PSoC5/ADC_SAR_1.c **** *     conversion is complete.
 466:.\Generated_Source\PSoC5/ADC_SAR_1.c **** *
 467:.\Generated_Source\PSoC5/ADC_SAR_1.c **** * Return:
 468:.\Generated_Source\PSoC5/ADC_SAR_1.c **** *  (uint8)  0 =>  The ADC is still calculating the last result.
 469:.\Generated_Source\PSoC5/ADC_SAR_1.c **** *           1 =>  The last conversion is complete.
 470:.\Generated_Source\PSoC5/ADC_SAR_1.c **** *
 471:.\Generated_Source\PSoC5/ADC_SAR_1.c **** * Side Effects:
 472:.\Generated_Source\PSoC5/ADC_SAR_1.c **** *  This function reads the end of conversion status, which is cleared on read.
 473:.\Generated_Source\PSoC5/ADC_SAR_1.c **** *
 474:.\Generated_Source\PSoC5/ADC_SAR_1.c **** *******************************************************************************/
 475:.\Generated_Source\PSoC5/ADC_SAR_1.c **** uint8 ADC_SAR_1_IsEndConversion(uint8 retMode)
 476:.\Generated_Source\PSoC5/ADC_SAR_1.c **** {
 477:.\Generated_Source\PSoC5/ADC_SAR_1.c ****     uint8 status;
 478:.\Generated_Source\PSoC5/ADC_SAR_1.c **** 
 479:.\Generated_Source\PSoC5/ADC_SAR_1.c ****     do
 480:.\Generated_Source\PSoC5/ADC_SAR_1.c ****     {
 481:.\Generated_Source\PSoC5/ADC_SAR_1.c ****         status = ADC_SAR_1_SAR_CSR1_REG & ADC_SAR_1_SAR_EOF_1;
 482:.\Generated_Source\PSoC5/ADC_SAR_1.c ****     } while ((status != ADC_SAR_1_SAR_EOF_1) && (retMode == ADC_SAR_1_WAIT_FOR_RESULT));
 483:.\Generated_Source\PSoC5/ADC_SAR_1.c ****     /* If convertion complete, wait until EOF bit released */
 484:.\Generated_Source\PSoC5/ADC_SAR_1.c ****     if(status == ADC_SAR_1_SAR_EOF_1)
 485:.\Generated_Source\PSoC5/ADC_SAR_1.c ****     {
 486:.\Generated_Source\PSoC5/ADC_SAR_1.c ****         /* wait one ADC clock to let the EOC status bit release */
 487:.\Generated_Source\PSoC5/ADC_SAR_1.c ****         CyDelayUs(1u);
 488:.\Generated_Source\PSoC5/ADC_SAR_1.c ****         /* Do the unconditional read operation of the CSR1 register to make sure the EOC bit has be
ARM GAS  C:\Users\bwil410\AppData\Local\Temp\cc7k2h9F.s 			page 10


 489:.\Generated_Source\PSoC5/ADC_SAR_1.c ****         CY_GET_REG8(ADC_SAR_1_SAR_CSR1_PTR);
 490:.\Generated_Source\PSoC5/ADC_SAR_1.c ****     }
 491:.\Generated_Source\PSoC5/ADC_SAR_1.c **** 
 492:.\Generated_Source\PSoC5/ADC_SAR_1.c ****     return(status);
 493:.\Generated_Source\PSoC5/ADC_SAR_1.c **** }
 494:.\Generated_Source\PSoC5/ADC_SAR_1.c **** 
 495:.\Generated_Source\PSoC5/ADC_SAR_1.c **** 
 496:.\Generated_Source\PSoC5/ADC_SAR_1.c **** /*******************************************************************************
 497:.\Generated_Source\PSoC5/ADC_SAR_1.c **** * Function Name: ADC_SAR_1_GetResult8
 498:.\Generated_Source\PSoC5/ADC_SAR_1.c **** ********************************************************************************
 499:.\Generated_Source\PSoC5/ADC_SAR_1.c **** *
 500:.\Generated_Source\PSoC5/ADC_SAR_1.c **** * Summary:
 501:.\Generated_Source\PSoC5/ADC_SAR_1.c **** *  Returns the result of an 8-bit conversion. If the resolution is set greater
 502:.\Generated_Source\PSoC5/ADC_SAR_1.c **** *  than 8 bits, the function returns the LSB of the result.
 503:.\Generated_Source\PSoC5/ADC_SAR_1.c **** *  ADC_SAR_1_IsEndConversion() should be called to verify that the data
 504:.\Generated_Source\PSoC5/ADC_SAR_1.c **** *   sample is ready.
 505:.\Generated_Source\PSoC5/ADC_SAR_1.c **** *
 506:.\Generated_Source\PSoC5/ADC_SAR_1.c **** * Parameters:
 507:.\Generated_Source\PSoC5/ADC_SAR_1.c **** *  None.
 508:.\Generated_Source\PSoC5/ADC_SAR_1.c **** *
 509:.\Generated_Source\PSoC5/ADC_SAR_1.c **** * Return:
 510:.\Generated_Source\PSoC5/ADC_SAR_1.c **** *  The LSB of the last ADC conversion.
 511:.\Generated_Source\PSoC5/ADC_SAR_1.c **** *
 512:.\Generated_Source\PSoC5/ADC_SAR_1.c **** * Global Variables:
 513:.\Generated_Source\PSoC5/ADC_SAR_1.c **** *  ADC_SAR_1_shift - used to convert the ADC counts to the 2s
 514:.\Generated_Source\PSoC5/ADC_SAR_1.c **** *  compliment form.
 515:.\Generated_Source\PSoC5/ADC_SAR_1.c **** *
 516:.\Generated_Source\PSoC5/ADC_SAR_1.c **** * Side Effects:
 517:.\Generated_Source\PSoC5/ADC_SAR_1.c **** *  Converts the ADC counts to the 2s complement form.
 518:.\Generated_Source\PSoC5/ADC_SAR_1.c **** *
 519:.\Generated_Source\PSoC5/ADC_SAR_1.c **** *******************************************************************************/
 520:.\Generated_Source\PSoC5/ADC_SAR_1.c **** int8 ADC_SAR_1_GetResult8( void )
 521:.\Generated_Source\PSoC5/ADC_SAR_1.c **** {
 522:.\Generated_Source\PSoC5/ADC_SAR_1.c ****     return( (int8)ADC_SAR_1_SAR_WRK0_REG - (int8)ADC_SAR_1_shift);
 523:.\Generated_Source\PSoC5/ADC_SAR_1.c **** }
 524:.\Generated_Source\PSoC5/ADC_SAR_1.c **** 
 525:.\Generated_Source\PSoC5/ADC_SAR_1.c **** 
 526:.\Generated_Source\PSoC5/ADC_SAR_1.c **** /*******************************************************************************
 527:.\Generated_Source\PSoC5/ADC_SAR_1.c **** * Function Name: ADC_SAR_1_GetResult16
 528:.\Generated_Source\PSoC5/ADC_SAR_1.c **** ********************************************************************************
 529:.\Generated_Source\PSoC5/ADC_SAR_1.c **** *
 530:.\Generated_Source\PSoC5/ADC_SAR_1.c **** * Summary:
 531:.\Generated_Source\PSoC5/ADC_SAR_1.c **** *  Returns a 16-bit result for a conversion with a result that has a resolution
 532:.\Generated_Source\PSoC5/ADC_SAR_1.c **** *  of 8 to 12 bits.
 533:.\Generated_Source\PSoC5/ADC_SAR_1.c **** *  ADC_SAR_1_IsEndConversion() should be called to verify that the data
 534:.\Generated_Source\PSoC5/ADC_SAR_1.c **** *   sample is ready
 535:.\Generated_Source\PSoC5/ADC_SAR_1.c **** *
 536:.\Generated_Source\PSoC5/ADC_SAR_1.c **** * Parameters:
 537:.\Generated_Source\PSoC5/ADC_SAR_1.c **** *  None.
 538:.\Generated_Source\PSoC5/ADC_SAR_1.c **** *
 539:.\Generated_Source\PSoC5/ADC_SAR_1.c **** * Return:
 540:.\Generated_Source\PSoC5/ADC_SAR_1.c **** *  The 16-bit result of the last ADC conversion
 541:.\Generated_Source\PSoC5/ADC_SAR_1.c **** *
 542:.\Generated_Source\PSoC5/ADC_SAR_1.c **** * Global Variables:
 543:.\Generated_Source\PSoC5/ADC_SAR_1.c **** *  ADC_SAR_1_shift - used to convert the ADC counts to the 2s
 544:.\Generated_Source\PSoC5/ADC_SAR_1.c **** *  compliment form.
 545:.\Generated_Source\PSoC5/ADC_SAR_1.c **** *
ARM GAS  C:\Users\bwil410\AppData\Local\Temp\cc7k2h9F.s 			page 11


 546:.\Generated_Source\PSoC5/ADC_SAR_1.c **** * Side Effects:
 547:.\Generated_Source\PSoC5/ADC_SAR_1.c **** *  Converts the ADC counts to the 2s complement form.
 548:.\Generated_Source\PSoC5/ADC_SAR_1.c **** *
 549:.\Generated_Source\PSoC5/ADC_SAR_1.c **** *******************************************************************************/
 550:.\Generated_Source\PSoC5/ADC_SAR_1.c **** int16 ADC_SAR_1_GetResult16( void )
 551:.\Generated_Source\PSoC5/ADC_SAR_1.c **** {
 552:.\Generated_Source\PSoC5/ADC_SAR_1.c ****     uint16 res;
 553:.\Generated_Source\PSoC5/ADC_SAR_1.c **** 
 554:.\Generated_Source\PSoC5/ADC_SAR_1.c ****     res = CY_GET_REG16(ADC_SAR_1_SAR_WRK_PTR);
 555:.\Generated_Source\PSoC5/ADC_SAR_1.c **** 
 556:.\Generated_Source\PSoC5/ADC_SAR_1.c ****     return( (int16)res - ADC_SAR_1_shift );
 557:.\Generated_Source\PSoC5/ADC_SAR_1.c **** }
 558:.\Generated_Source\PSoC5/ADC_SAR_1.c **** 
 559:.\Generated_Source\PSoC5/ADC_SAR_1.c **** 
 560:.\Generated_Source\PSoC5/ADC_SAR_1.c **** /*******************************************************************************
 561:.\Generated_Source\PSoC5/ADC_SAR_1.c **** * Function Name: ADC_SAR_1_SetOffset
 562:.\Generated_Source\PSoC5/ADC_SAR_1.c **** ********************************************************************************
 563:.\Generated_Source\PSoC5/ADC_SAR_1.c **** *
 564:.\Generated_Source\PSoC5/ADC_SAR_1.c **** * Summary:
 565:.\Generated_Source\PSoC5/ADC_SAR_1.c **** *  Sets the ADC offset, which is used by ADC_SAR_1_CountsTo_Volts(),
 566:.\Generated_Source\PSoC5/ADC_SAR_1.c **** *  ADC_SAR_1_CountsTo_mVolts(), and ADC_SAR_1_CountsTo_uVolts()
 567:.\Generated_Source\PSoC5/ADC_SAR_1.c **** *  to subtract the offset from the given reading before calculating the voltage
 568:.\Generated_Source\PSoC5/ADC_SAR_1.c **** *  conversion.
 569:.\Generated_Source\PSoC5/ADC_SAR_1.c **** *
 570:.\Generated_Source\PSoC5/ADC_SAR_1.c **** * Parameters:
 571:.\Generated_Source\PSoC5/ADC_SAR_1.c **** *  int16: This value is measured when the inputs are shorted or connected to
 572:.\Generated_Source\PSoC5/ADC_SAR_1.c ****    the same input voltage.
 573:.\Generated_Source\PSoC5/ADC_SAR_1.c **** *
 574:.\Generated_Source\PSoC5/ADC_SAR_1.c **** * Return:
 575:.\Generated_Source\PSoC5/ADC_SAR_1.c **** *  None.
 576:.\Generated_Source\PSoC5/ADC_SAR_1.c **** *
 577:.\Generated_Source\PSoC5/ADC_SAR_1.c **** * Global Variables:
 578:.\Generated_Source\PSoC5/ADC_SAR_1.c **** *  The ADC_SAR_1_offset variable modified. This variable is used for
 579:.\Generated_Source\PSoC5/ADC_SAR_1.c **** *  offset calibration purpose.
 580:.\Generated_Source\PSoC5/ADC_SAR_1.c **** *  Affects the ADC_SAR_1_CountsTo_Volts,
 581:.\Generated_Source\PSoC5/ADC_SAR_1.c **** *  ADC_SAR_1_CountsTo_mVolts, ADC_SAR_1_CountsTo_uVolts functions
 582:.\Generated_Source\PSoC5/ADC_SAR_1.c **** *  by subtracting the given offset.
 583:.\Generated_Source\PSoC5/ADC_SAR_1.c **** *
 584:.\Generated_Source\PSoC5/ADC_SAR_1.c **** *******************************************************************************/
 585:.\Generated_Source\PSoC5/ADC_SAR_1.c **** void ADC_SAR_1_SetOffset(int16 offset)
 586:.\Generated_Source\PSoC5/ADC_SAR_1.c **** {
 587:.\Generated_Source\PSoC5/ADC_SAR_1.c ****     ADC_SAR_1_offset = offset;
 588:.\Generated_Source\PSoC5/ADC_SAR_1.c **** }
 589:.\Generated_Source\PSoC5/ADC_SAR_1.c **** 
 590:.\Generated_Source\PSoC5/ADC_SAR_1.c **** 
 591:.\Generated_Source\PSoC5/ADC_SAR_1.c **** /*******************************************************************************
 592:.\Generated_Source\PSoC5/ADC_SAR_1.c **** * Function Name: ADC_SAR_1_CalcGain
 593:.\Generated_Source\PSoC5/ADC_SAR_1.c **** ********************************************************************************
 594:.\Generated_Source\PSoC5/ADC_SAR_1.c **** *
 595:.\Generated_Source\PSoC5/ADC_SAR_1.c **** * Summary:
 596:.\Generated_Source\PSoC5/ADC_SAR_1.c **** *  This function calculates the ADC gain in counts per 10 volt.
 597:.\Generated_Source\PSoC5/ADC_SAR_1.c **** *
 598:.\Generated_Source\PSoC5/ADC_SAR_1.c **** * Parameters:
 599:.\Generated_Source\PSoC5/ADC_SAR_1.c **** *  uint8: resolution
 600:.\Generated_Source\PSoC5/ADC_SAR_1.c **** *
 601:.\Generated_Source\PSoC5/ADC_SAR_1.c **** * Return:
 602:.\Generated_Source\PSoC5/ADC_SAR_1.c **** *  None.
ARM GAS  C:\Users\bwil410\AppData\Local\Temp\cc7k2h9F.s 			page 12


 603:.\Generated_Source\PSoC5/ADC_SAR_1.c **** *
 604:.\Generated_Source\PSoC5/ADC_SAR_1.c **** * Global Variables:
 605:.\Generated_Source\PSoC5/ADC_SAR_1.c **** *  ADC_SAR_1_shift variable initialized. This variable is used to
 606:.\Generated_Source\PSoC5/ADC_SAR_1.c **** *  convert the ADC counts to the 2s compliment form.
 607:.\Generated_Source\PSoC5/ADC_SAR_1.c **** *  ADC_SAR_1_countsPer10Volt variable initialized. This variable is used
 608:.\Generated_Source\PSoC5/ADC_SAR_1.c **** *  for gain calibration purpose.
 609:.\Generated_Source\PSoC5/ADC_SAR_1.c **** *
 610:.\Generated_Source\PSoC5/ADC_SAR_1.c **** *******************************************************************************/
 611:.\Generated_Source\PSoC5/ADC_SAR_1.c **** static void ADC_SAR_1_CalcGain( uint8 resolution )
 612:.\Generated_Source\PSoC5/ADC_SAR_1.c **** {
  26              		.loc 1 612 0
  27              		.cfi_startproc
  28              		@ args = 0, pretend = 0, frame = 0
  29              		@ frame_needed = 0, uses_anonymous_args = 0
  30              	.LVL0:
  31 0000 08B5     		push	{r3, lr}
  32              		.cfi_def_cfa_offset 8
  33              		.cfi_offset 3, -8
  34              		.cfi_offset 14, -4
 613:.\Generated_Source\PSoC5/ADC_SAR_1.c ****     int32 counts;
 614:.\Generated_Source\PSoC5/ADC_SAR_1.c ****     #if(!((ADC_SAR_1_DEFAULT_RANGE == ADC_SAR_1__VSS_TO_VREF) || \
 615:.\Generated_Source\PSoC5/ADC_SAR_1.c ****          (ADC_SAR_1_DEFAULT_RANGE == ADC_SAR_1__VSSA_TO_VDDA) || \
 616:.\Generated_Source\PSoC5/ADC_SAR_1.c ****          (ADC_SAR_1_DEFAULT_RANGE == ADC_SAR_1__VSSA_TO_VDAC)) )
 617:.\Generated_Source\PSoC5/ADC_SAR_1.c ****         uint16 diff_zero;
 618:.\Generated_Source\PSoC5/ADC_SAR_1.c ****     #endif /* End ADC_SAR_1_DEFAULT_RANGE */
 619:.\Generated_Source\PSoC5/ADC_SAR_1.c **** 
 620:.\Generated_Source\PSoC5/ADC_SAR_1.c ****     switch (resolution)
  35              		.loc 1 620 0
  36 0002 0A28     		cmp	r0, #10
  37 0004 0FD0     		beq	.L6
  38 0006 0C28     		cmp	r0, #12
  39 0008 02D0     		beq	.L4
  40 000a 0828     		cmp	r0, #8
  41 000c 06D1     		bne	.L7
  42 000e 02E0     		b	.L5
  43              	.L4:
 621:.\Generated_Source\PSoC5/ADC_SAR_1.c ****     {
 622:.\Generated_Source\PSoC5/ADC_SAR_1.c ****         case (uint8)ADC_SAR_1__BITS_12:
 623:.\Generated_Source\PSoC5/ADC_SAR_1.c ****             counts = (int32)ADC_SAR_1_SAR_WRK_MAX_12BIT;
  44              		.loc 1 623 0
  45 0010 4FF48052 		mov	r2, #4096
  46 0014 09E0     		b	.L3
  47              	.L5:
  48              	.LVL1:
 624:.\Generated_Source\PSoC5/ADC_SAR_1.c ****             #if(!((ADC_SAR_1_DEFAULT_RANGE == ADC_SAR_1__VSS_TO_VREF) || \
 625:.\Generated_Source\PSoC5/ADC_SAR_1.c ****                  (ADC_SAR_1_DEFAULT_RANGE == ADC_SAR_1__VSSA_TO_VDDA) || \
 626:.\Generated_Source\PSoC5/ADC_SAR_1.c ****                  (ADC_SAR_1_DEFAULT_RANGE == ADC_SAR_1__VSSA_TO_VDAC)) )
 627:.\Generated_Source\PSoC5/ADC_SAR_1.c ****                 diff_zero = ADC_SAR_1_SAR_DIFF_SHIFT;
 628:.\Generated_Source\PSoC5/ADC_SAR_1.c ****             #endif /* End ADC_SAR_1_DEFAULT_RANGE */
 629:.\Generated_Source\PSoC5/ADC_SAR_1.c ****             break;
 630:.\Generated_Source\PSoC5/ADC_SAR_1.c ****         case (uint8)ADC_SAR_1__BITS_10:
 631:.\Generated_Source\PSoC5/ADC_SAR_1.c ****             counts = (int32)ADC_SAR_1_SAR_WRK_MAX_10BIT;
 632:.\Generated_Source\PSoC5/ADC_SAR_1.c ****             #if(!((ADC_SAR_1_DEFAULT_RANGE == ADC_SAR_1__VSS_TO_VREF) || \
 633:.\Generated_Source\PSoC5/ADC_SAR_1.c ****                  (ADC_SAR_1_DEFAULT_RANGE == ADC_SAR_1__VSSA_TO_VDDA) || \
 634:.\Generated_Source\PSoC5/ADC_SAR_1.c ****                  (ADC_SAR_1_DEFAULT_RANGE == ADC_SAR_1__VSSA_TO_VDAC)) )
 635:.\Generated_Source\PSoC5/ADC_SAR_1.c ****                 diff_zero = ADC_SAR_1_SAR_DIFF_SHIFT >> 2u;
 636:.\Generated_Source\PSoC5/ADC_SAR_1.c ****             #endif /* End ADC_SAR_1_DEFAULT_RANGE */
ARM GAS  C:\Users\bwil410\AppData\Local\Temp\cc7k2h9F.s 			page 13


 637:.\Generated_Source\PSoC5/ADC_SAR_1.c ****             break;
 638:.\Generated_Source\PSoC5/ADC_SAR_1.c ****         case (uint8)ADC_SAR_1__BITS_8:
 639:.\Generated_Source\PSoC5/ADC_SAR_1.c ****             counts = (int32)ADC_SAR_1_SAR_WRK_MAX_8BIT;
  49              		.loc 1 639 0
  50 0016 4FF48072 		mov	r2, #256
 640:.\Generated_Source\PSoC5/ADC_SAR_1.c ****             #if(!((ADC_SAR_1_DEFAULT_RANGE == ADC_SAR_1__VSS_TO_VREF) || \
 641:.\Generated_Source\PSoC5/ADC_SAR_1.c ****                  (ADC_SAR_1_DEFAULT_RANGE == ADC_SAR_1__VSSA_TO_VDDA) || \
 642:.\Generated_Source\PSoC5/ADC_SAR_1.c ****                  (ADC_SAR_1_DEFAULT_RANGE == ADC_SAR_1__VSSA_TO_VDAC)) )
 643:.\Generated_Source\PSoC5/ADC_SAR_1.c ****                 diff_zero = ADC_SAR_1_SAR_DIFF_SHIFT >> 4u;
 644:.\Generated_Source\PSoC5/ADC_SAR_1.c ****             #endif /* End ADC_SAR_1_DEFAULT_RANGE */
 645:.\Generated_Source\PSoC5/ADC_SAR_1.c ****             break;
  51              		.loc 1 645 0
  52 001a 06E0     		b	.L3
  53              	.LVL2:
  54              	.L7:
 646:.\Generated_Source\PSoC5/ADC_SAR_1.c ****         default: /* Halt CPU in debug mode if resolution is out of valid range */
 647:.\Generated_Source\PSoC5/ADC_SAR_1.c ****             counts = 0;
 648:.\Generated_Source\PSoC5/ADC_SAR_1.c ****             #if(!((ADC_SAR_1_DEFAULT_RANGE == ADC_SAR_1__VSS_TO_VREF) || \
 649:.\Generated_Source\PSoC5/ADC_SAR_1.c ****                  (ADC_SAR_1_DEFAULT_RANGE == ADC_SAR_1__VSSA_TO_VDDA) || \
 650:.\Generated_Source\PSoC5/ADC_SAR_1.c ****                  (ADC_SAR_1_DEFAULT_RANGE == ADC_SAR_1__VSSA_TO_VDAC)) )
 651:.\Generated_Source\PSoC5/ADC_SAR_1.c ****                 diff_zero = 0u;
 652:.\Generated_Source\PSoC5/ADC_SAR_1.c ****             #endif /* End ADC_SAR_1_DEFAULT_RANGE */
 653:.\Generated_Source\PSoC5/ADC_SAR_1.c ****             CYASSERT(0u != 0u);
  55              		.loc 1 653 0
  56 001c 0020     		movs	r0, #0
  57              	.LVL3:
  58 001e FFF7FEFF 		bl	CyHalt
  59              	.LVL4:
 647:.\Generated_Source\PSoC5/ADC_SAR_1.c ****             #if(!((ADC_SAR_1_DEFAULT_RANGE == ADC_SAR_1__VSS_TO_VREF) || \
  60              		.loc 1 647 0
  61 0022 0022     		movs	r2, #0
  62 0024 01E0     		b	.L3
  63              	.LVL5:
  64              	.L6:
 631:.\Generated_Source\PSoC5/ADC_SAR_1.c ****             #if(!((ADC_SAR_1_DEFAULT_RANGE == ADC_SAR_1__VSS_TO_VREF) || \
  65              		.loc 1 631 0
  66 0026 4FF48062 		mov	r2, #1024
  67              	.LVL6:
  68              	.L3:
 654:.\Generated_Source\PSoC5/ADC_SAR_1.c ****             break;
 655:.\Generated_Source\PSoC5/ADC_SAR_1.c ****     }
 656:.\Generated_Source\PSoC5/ADC_SAR_1.c ****     ADC_SAR_1_countsPerVolt = 0; /* Clear obsolete variable */
  69              		.loc 1 656 0
  70 002a 0021     		movs	r1, #0
  71 002c 094B     		ldr	r3, .L9
  72 002e 1980     		strh	r1, [r3]	@ movhi
 657:.\Generated_Source\PSoC5/ADC_SAR_1.c ****     /* Calculate gain in counts per 10 volts with rounding */
 658:.\Generated_Source\PSoC5/ADC_SAR_1.c ****     ADC_SAR_1_countsPer10Volt = (((counts * ADC_SAR_1_10MV_COUNTS) +
  73              		.loc 1 658 0
  74 0030 41F28833 		movw	r3, #5000
  75 0034 42F21070 		movw	r0, #10000
  76 0038 00FB0233 		mla	r3, r0, r2, r3
 659:.\Generated_Source\PSoC5/ADC_SAR_1.c ****                         ADC_SAR_1_DEFAULT_REF_VOLTAGE_MV) / (ADC_SAR_1_DEFAULT_REF_VOLTAGE_MV * 2))
  77              		.loc 1 659 0
  78 003c 064A     		ldr	r2, .L9+4
  79              	.LVL7:
  80 003e 82FB0302 		smull	r0, r2, r2, r3
ARM GAS  C:\Users\bwil410\AppData\Local\Temp\cc7k2h9F.s 			page 14


  81 0042 DB17     		asrs	r3, r3, #31
  82 0044 C3EB2233 		rsb	r3, r3, r2, asr #12
 658:.\Generated_Source\PSoC5/ADC_SAR_1.c ****                         ADC_SAR_1_DEFAULT_REF_VOLTAGE_MV) / (ADC_SAR_1_DEFAULT_REF_VOLTAGE_MV * 2))
  83              		.loc 1 658 0
  84 0048 044A     		ldr	r2, .L9+8
  85 004a 1360     		str	r3, [r2]
 660:.\Generated_Source\PSoC5/ADC_SAR_1.c **** 
 661:.\Generated_Source\PSoC5/ADC_SAR_1.c ****     #if( (ADC_SAR_1_DEFAULT_RANGE == ADC_SAR_1__VSS_TO_VREF) || \
 662:.\Generated_Source\PSoC5/ADC_SAR_1.c ****          (ADC_SAR_1_DEFAULT_RANGE == ADC_SAR_1__VSSA_TO_VDDA) || \
 663:.\Generated_Source\PSoC5/ADC_SAR_1.c ****          (ADC_SAR_1_DEFAULT_RANGE == ADC_SAR_1__VSSA_TO_VDAC) )
 664:.\Generated_Source\PSoC5/ADC_SAR_1.c ****         ADC_SAR_1_shift = 0;
  86              		.loc 1 664 0
  87 004c 044B     		ldr	r3, .L9+12
  88 004e 1980     		strh	r1, [r3]	@ movhi
  89 0050 08BD     		pop	{r3, pc}
  90              	.L10:
  91 0052 00BF     		.align	2
  92              	.L9:
  93 0054 00000000 		.word	ADC_SAR_1_countsPerVolt
  94 0058 AD8BDB68 		.word	1759218605
  95 005c 00000000 		.word	ADC_SAR_1_countsPer10Volt
  96 0060 00000000 		.word	ADC_SAR_1_shift
  97              		.cfi_endproc
  98              	.LFE12:
  99              		.size	ADC_SAR_1_CalcGain, .-ADC_SAR_1_CalcGain
 100              		.section	.text.ADC_SAR_1_Enable,"ax",%progbits
 101              		.align	2
 102              		.global	ADC_SAR_1_Enable
 103              		.thumb
 104              		.thumb_func
 105              		.type	ADC_SAR_1_Enable, %function
 106              	ADC_SAR_1_Enable:
 107              	.LFB2:
 144:.\Generated_Source\PSoC5/ADC_SAR_1.c ****     uint8 tmpReg;
 108              		.loc 1 144 0
 109              		.cfi_startproc
 110              		@ args = 0, pretend = 0, frame = 0
 111              		@ frame_needed = 0, uses_anonymous_args = 0
 112 0000 10B5     		push	{r4, lr}
 113              		.cfi_def_cfa_offset 8
 114              		.cfi_offset 4, -8
 115              		.cfi_offset 14, -4
 147:.\Generated_Source\PSoC5/ADC_SAR_1.c **** 
 116              		.loc 1 147 0
 117 0002 FFF7FEFF 		bl	CyEnterCriticalSection
 118              	.LVL8:
 119 0006 0446     		mov	r4, r0
 120              	.LVL9:
 150:.\Generated_Source\PSoC5/ADC_SAR_1.c **** 
 121              		.loc 1 150 0
 122 0008 1F4A     		ldr	r2, .L13
 123 000a 1378     		ldrb	r3, [r2]	@ zero_extendqisi2
 124 000c 43F00203 		orr	r3, r3, #2
 125 0010 1370     		strb	r3, [r2]
 153:.\Generated_Source\PSoC5/ADC_SAR_1.c **** 
 126              		.loc 1 153 0
 127 0012 1032     		adds	r2, r2, #16
ARM GAS  C:\Users\bwil410\AppData\Local\Temp\cc7k2h9F.s 			page 15


 128 0014 1378     		ldrb	r3, [r2]	@ zero_extendqisi2
 129 0016 43F00203 		orr	r3, r3, #2
 130 001a 1370     		strb	r3, [r2]
 157:.\Generated_Source\PSoC5/ADC_SAR_1.c ****         ADC_SAR_1_STBY_PWRMGR_CLK_REG |= ADC_SAR_1_STBY_PWR_CLK_EN;
 131              		.loc 1 157 0
 132 001c 193A     		subs	r2, r2, #25
 133 001e 1378     		ldrb	r3, [r2]	@ zero_extendqisi2
 134 0020 43F00203 		orr	r3, r3, #2
 135 0024 1370     		strb	r3, [r2]
 158:.\Generated_Source\PSoC5/ADC_SAR_1.c ****     #endif /* End ADC_SAR_1_DEFAULT_INTERNAL_CLK */
 136              		.loc 1 158 0
 137 0026 1032     		adds	r2, r2, #16
 138 0028 1378     		ldrb	r3, [r2]	@ zero_extendqisi2
 139 002a 43F00203 		orr	r3, r3, #2
 140 002e 1370     		strb	r3, [r2]
 162:.\Generated_Source\PSoC5/ADC_SAR_1.c ****     tmpReg |= ADC_SAR_1_SAR_EN_BUF_VCM_EN;
 141              		.loc 1 162 0
 142 0030 02F5AA52 		add	r2, r2, #5440
 143 0034 1932     		adds	r2, r2, #25
 144 0036 1378     		ldrb	r3, [r2]	@ zero_extendqisi2
 145              	.LVL10:
 167:.\Generated_Source\PSoC5/ADC_SAR_1.c ****     #else /* In INTREF or INTREF Bypassed this buffer is ON */
 146              		.loc 1 167 0
 147 0038 03F0FE03 		and	r3, r3, #254
 148              	.LVL11:
 149 003c 43F00203 		orr	r3, r3, #2
 150              	.LVL12:
 171:.\Generated_Source\PSoC5/ADC_SAR_1.c **** 
 151              		.loc 1 171 0
 152 0040 1370     		strb	r3, [r2]
 184:.\Generated_Source\PSoC5/ADC_SAR_1.c ****         #endif /* ADC_SAR_1_DEFAULT_REFERENCE == ADC_SAR_1__INT_REF_NOT_BYPASSED */
 153              		.loc 1 184 0
 154 0042 0422     		movs	r2, #4
 155 0044 114B     		ldr	r3, .L13+4
 156              	.LVL13:
 157 0046 1A70     		strb	r2, [r3]
 158              	.LVL14:
 190:.\Generated_Source\PSoC5/ADC_SAR_1.c ****     #else /* Set High non-overlap delay for sampling clock signals (for <500KSPS)*/
 159              		.loc 1 190 0
 160 0048 013B     		subs	r3, r3, #1
 161 004a 1A78     		ldrb	r2, [r3]	@ zero_extendqisi2
 162 004c 02F0BF02 		and	r2, r2, #191
 163 0050 1A70     		strb	r2, [r3]
 200:.\Generated_Source\PSoC5/ADC_SAR_1.c ****     #else /* for <500ksps */
 164              		.loc 1 200 0
 165 0052 1A78     		ldrb	r2, [r3]	@ zero_extendqisi2
 166 0054 42F00302 		orr	r2, r2, #3
 167 0058 1A70     		strb	r2, [r3]
 206:.\Generated_Source\PSoC5/ADC_SAR_1.c ****     /* SAR_HIZ_CLEAR:   Should not be used for LP */
 168              		.loc 1 206 0
 169 005a 0822     		movs	r2, #8
 170 005c 053B     		subs	r3, r3, #5
 171 005e 1A70     		strb	r2, [r3]
 218:.\Generated_Source\PSoC5/ADC_SAR_1.c **** 
 172              		.loc 1 218 0
 173 0060 0222     		movs	r2, #2
 174 0062 A3F59753 		sub	r3, r3, #4832
ARM GAS  C:\Users\bwil410\AppData\Local\Temp\cc7k2h9F.s 			page 16


 175 0066 123B     		subs	r3, r3, #18
 176 0068 1A70     		strb	r2, [r3]
 221:.\Generated_Source\PSoC5/ADC_SAR_1.c **** 
 177              		.loc 1 221 0
 178 006a 094A     		ldr	r2, .L13+8
 179 006c 1378     		ldrb	r3, [r2]	@ zero_extendqisi2
 180 006e 43F00803 		orr	r3, r3, #8
 181 0072 1370     		strb	r3, [r2]
 223:.\Generated_Source\PSoC5/ADC_SAR_1.c **** 
 182              		.loc 1 223 0
 183 0074 0A20     		movs	r0, #10
 184 0076 FFF7FEFF 		bl	CyDelayUs
 185              	.LVL15:
 227:.\Generated_Source\PSoC5/ADC_SAR_1.c ****     #endif   /* End ADC_SAR_1_IRQ_REMOVE */
 186              		.loc 1 227 0
 187 007a 0122     		movs	r2, #1
 188 007c 054B     		ldr	r3, .L13+12
 189 007e 1A60     		str	r2, [r3]
 230:.\Generated_Source\PSoC5/ADC_SAR_1.c **** }
 190              		.loc 1 230 0
 191 0080 2046     		mov	r0, r4
 192 0082 FFF7FEFF 		bl	CyExitCriticalSection
 193              	.LVL16:
 194 0086 10BD     		pop	{r4, pc}
 195              	.LVL17:
 196              	.L14:
 197              		.align	2
 198              	.L13:
 199 0088 AB430040 		.word	1073759147
 200 008c 0E590040 		.word	1073764622
 201 0090 2F5B0040 		.word	1073765167
 202 0094 80E200E0 		.word	-536812928
 203              		.cfi_endproc
 204              	.LFE2:
 205              		.size	ADC_SAR_1_Enable, .-ADC_SAR_1_Enable
 206              		.section	.text.ADC_SAR_1_Stop,"ax",%progbits
 207              		.align	2
 208              		.global	ADC_SAR_1_Stop
 209              		.thumb
 210              		.thumb_func
 211              		.type	ADC_SAR_1_Stop, %function
 212              	ADC_SAR_1_Stop:
 213              	.LFB3:
 249:.\Generated_Source\PSoC5/ADC_SAR_1.c ****     uint8 enableInterrupts;
 214              		.loc 1 249 0
 215              		.cfi_startproc
 216              		@ args = 0, pretend = 0, frame = 0
 217              		@ frame_needed = 0, uses_anonymous_args = 0
 218 0000 08B5     		push	{r3, lr}
 219              		.cfi_def_cfa_offset 8
 220              		.cfi_offset 3, -8
 221              		.cfi_offset 14, -4
 251:.\Generated_Source\PSoC5/ADC_SAR_1.c **** 
 222              		.loc 1 251 0
 223 0002 FFF7FEFF 		bl	CyEnterCriticalSection
 224              	.LVL18:
 254:.\Generated_Source\PSoC5/ADC_SAR_1.c ****     /* Disable the SAR ADC block in Active Power Mode */
ARM GAS  C:\Users\bwil410\AppData\Local\Temp\cc7k2h9F.s 			page 17


 225              		.loc 1 254 0
 226 0006 0F4A     		ldr	r2, .L17
 227 0008 1378     		ldrb	r3, [r2]	@ zero_extendqisi2
 228 000a 03F0FE03 		and	r3, r3, #254
 229 000e 1370     		strb	r3, [r2]
 256:.\Generated_Source\PSoC5/ADC_SAR_1.c ****     /* Disable the SAR ADC in Standby Power Mode */
 230              		.loc 1 256 0
 231 0010 A2F5AA52 		sub	r2, r2, #5440
 232 0014 1D3A     		subs	r2, r2, #29
 233 0016 1378     		ldrb	r3, [r2]	@ zero_extendqisi2
 234 0018 03F0FD03 		and	r3, r3, #253
 235 001c 1370     		strb	r3, [r2]
 258:.\Generated_Source\PSoC5/ADC_SAR_1.c **** 
 236              		.loc 1 258 0
 237 001e 1032     		adds	r2, r2, #16
 238 0020 1378     		ldrb	r3, [r2]	@ zero_extendqisi2
 239 0022 03F0FD03 		and	r3, r3, #253
 240 0026 1370     		strb	r3, [r2]
 262:.\Generated_Source\PSoC5/ADC_SAR_1.c ****         ADC_SAR_1_STBY_PWRMGR_CLK_REG &= (uint8)~ADC_SAR_1_STBY_PWR_CLK_EN;
 241              		.loc 1 262 0
 242 0028 193A     		subs	r2, r2, #25
 243 002a 1378     		ldrb	r3, [r2]	@ zero_extendqisi2
 244 002c 03F0FD03 		and	r3, r3, #253
 245 0030 1370     		strb	r3, [r2]
 263:.\Generated_Source\PSoC5/ADC_SAR_1.c ****     #endif /* End ADC_SAR_1_DEFAULT_INTERNAL_CLK */
 246              		.loc 1 263 0
 247 0032 1032     		adds	r2, r2, #16
 248 0034 1378     		ldrb	r3, [r2]	@ zero_extendqisi2
 249 0036 03F0FD03 		and	r3, r3, #253
 250 003a 1370     		strb	r3, [r2]
 266:.\Generated_Source\PSoC5/ADC_SAR_1.c **** 
 251              		.loc 1 266 0
 252 003c FFF7FEFF 		bl	CyExitCriticalSection
 253              	.LVL19:
 254 0040 08BD     		pop	{r3, pc}
 255              	.L18:
 256 0042 00BF     		.align	2
 257              	.L17:
 258 0044 08590040 		.word	1073764616
 259              		.cfi_endproc
 260              	.LFE3:
 261              		.size	ADC_SAR_1_Stop, .-ADC_SAR_1_Stop
 262              		.section	.text.ADC_SAR_1_SetPower,"ax",%progbits
 263              		.align	2
 264              		.global	ADC_SAR_1_SetPower
 265              		.thumb
 266              		.thumb_func
 267              		.type	ADC_SAR_1_SetPower, %function
 268              	ADC_SAR_1_SetPower:
 269              	.LFB4:
 291:.\Generated_Source\PSoC5/ADC_SAR_1.c ****     uint8 tmpReg;
 270              		.loc 1 291 0
 271              		.cfi_startproc
 272              		@ args = 0, pretend = 0, frame = 0
 273              		@ frame_needed = 0, uses_anonymous_args = 0
 274              		@ link register save eliminated.
 275              	.LVL20:
ARM GAS  C:\Users\bwil410\AppData\Local\Temp\cc7k2h9F.s 			page 18


 295:.\Generated_Source\PSoC5/ADC_SAR_1.c **** 
 276              		.loc 1 295 0
 277 0000 00F00300 		and	r0, r0, #3
 278              	.LVL21:
 298:.\Generated_Source\PSoC5/ADC_SAR_1.c ****     tmpReg |= (uint8)(power << ADC_SAR_1_SAR_POWER_SHIFT);
 279              		.loc 1 298 0
 280 0004 034A     		ldr	r2, .L20
 281 0006 1378     		ldrb	r3, [r2]	@ zero_extendqisi2
 282 0008 03F03F03 		and	r3, r3, #63
 283              	.LVL22:
 299:.\Generated_Source\PSoC5/ADC_SAR_1.c ****     ADC_SAR_1_SAR_CSR0_REG = tmpReg;
 284              		.loc 1 299 0
 285 000c 43EA8010 		orr	r0, r3, r0, lsl #6
 286              	.LVL23:
 300:.\Generated_Source\PSoC5/ADC_SAR_1.c **** }
 287              		.loc 1 300 0
 288 0010 1070     		strb	r0, [r2]
 289 0012 7047     		bx	lr
 290              	.L21:
 291              		.align	2
 292              	.L20:
 293 0014 08590040 		.word	1073764616
 294              		.cfi_endproc
 295              	.LFE4:
 296              		.size	ADC_SAR_1_SetPower, .-ADC_SAR_1_SetPower
 297              		.section	.text.ADC_SAR_1_SetResolution,"ax",%progbits
 298              		.align	2
 299              		.global	ADC_SAR_1_SetResolution
 300              		.thumb
 301              		.thumb_func
 302              		.type	ADC_SAR_1_SetResolution, %function
 303              	ADC_SAR_1_SetResolution:
 304              	.LFB5:
 341:.\Generated_Source\PSoC5/ADC_SAR_1.c ****     uint8 tmpReg;
 305              		.loc 1 341 0
 306              		.cfi_startproc
 307              		@ args = 0, pretend = 0, frame = 0
 308              		@ frame_needed = 0, uses_anonymous_args = 0
 309              	.LVL24:
 310 0000 10B5     		push	{r4, lr}
 311              		.cfi_def_cfa_offset 8
 312              		.cfi_offset 4, -8
 313              		.cfi_offset 14, -4
 314 0002 0446     		mov	r4, r0
 345:.\Generated_Source\PSoC5/ADC_SAR_1.c ****     {
 315              		.loc 1 345 0
 316 0004 0A28     		cmp	r0, #10
 317 0006 0DD0     		beq	.L27
 318 0008 0C28     		cmp	r0, #12
 319 000a 02D0     		beq	.L25
 320 000c 0828     		cmp	r0, #8
 321 000e 04D1     		bne	.L28
 322 0010 01E0     		b	.L26
 323              	.L25:
 348:.\Generated_Source\PSoC5/ADC_SAR_1.c ****             break;
 324              		.loc 1 348 0
 325 0012 C422     		movs	r2, #196
ARM GAS  C:\Users\bwil410\AppData\Local\Temp\cc7k2h9F.s 			page 19


 326 0014 07E0     		b	.L24
 327              	.L26:
 328              	.LVL25:
 354:.\Generated_Source\PSoC5/ADC_SAR_1.c ****             break;
 329              		.loc 1 354 0
 330 0016 4422     		movs	r2, #68
 355:.\Generated_Source\PSoC5/ADC_SAR_1.c ****         default:
 331              		.loc 1 355 0
 332 0018 05E0     		b	.L24
 333              	.LVL26:
 334              	.L28:
 359:.\Generated_Source\PSoC5/ADC_SAR_1.c ****             break;
 335              		.loc 1 359 0
 336 001a 0020     		movs	r0, #0
 337              	.LVL27:
 338 001c FFF7FEFF 		bl	CyHalt
 339              	.LVL28:
 357:.\Generated_Source\PSoC5/ADC_SAR_1.c ****             /* Halt CPU in debug mode if resolution is out of valid range */
 340              		.loc 1 357 0
 341 0020 C422     		movs	r2, #196
 342 0022 00E0     		b	.L24
 343              	.LVL29:
 344              	.L27:
 351:.\Generated_Source\PSoC5/ADC_SAR_1.c ****             break;
 345              		.loc 1 351 0
 346 0024 8422     		movs	r2, #132
 347              	.LVL30:
 348              	.L24:
 362:.\Generated_Source\PSoC5/ADC_SAR_1.c **** 
 349              		.loc 1 362 0
 350 0026 034B     		ldr	r3, .L30
 351 0028 1A70     		strb	r2, [r3]
 365:.\Generated_Source\PSoC5/ADC_SAR_1.c **** }
 352              		.loc 1 365 0
 353 002a 2046     		mov	r0, r4
 354 002c FFF7FEFF 		bl	ADC_SAR_1_CalcGain
 355              	.LVL31:
 356 0030 10BD     		pop	{r4, pc}
 357              	.L31:
 358 0032 00BF     		.align	2
 359              	.L30:
 360 0034 0A590040 		.word	1073764618
 361              		.cfi_endproc
 362              	.LFE5:
 363              		.size	ADC_SAR_1_SetResolution, .-ADC_SAR_1_SetResolution
 364              		.section	.text.ADC_SAR_1_Init,"ax",%progbits
 365              		.align	2
 366              		.global	ADC_SAR_1_Init
 367              		.thumb
 368              		.thumb_func
 369              		.type	ADC_SAR_1_Init, %function
 370              	ADC_SAR_1_Init:
 371              	.LFB1:
 107:.\Generated_Source\PSoC5/ADC_SAR_1.c **** 
 372              		.loc 1 107 0
 373              		.cfi_startproc
 374              		@ args = 0, pretend = 0, frame = 0
ARM GAS  C:\Users\bwil410\AppData\Local\Temp\cc7k2h9F.s 			page 20


 375              		@ frame_needed = 0, uses_anonymous_args = 0
 376 0000 08B5     		push	{r3, lr}
 377              		.cfi_def_cfa_offset 8
 378              		.cfi_offset 3, -8
 379              		.cfi_offset 14, -4
 111:.\Generated_Source\PSoC5/ADC_SAR_1.c ****     #endif /* End ADC_SAR_1_DEFAULT_INTERNAL_CLK */
 380              		.loc 1 111 0
 381 0002 1020     		movs	r0, #16
 382 0004 FFF7FEFF 		bl	ADC_SAR_1_theACLK_SetModeRegister
 383              	.LVL32:
 116:.\Generated_Source\PSoC5/ADC_SAR_1.c ****         (void)CyIntSetVector(ADC_SAR_1_INTC_NUMBER, &ADC_SAR_1_ISR);
 384              		.loc 1 116 0
 385 0008 0020     		movs	r0, #0
 386 000a 0721     		movs	r1, #7
 387 000c FFF7FEFF 		bl	CyIntSetPriority
 388              	.LVL33:
 117:.\Generated_Source\PSoC5/ADC_SAR_1.c ****     #endif   /* End ADC_SAR_1_IRQ_REMOVE */
 389              		.loc 1 117 0
 390 0010 0020     		movs	r0, #0
 391 0012 0749     		ldr	r1, .L34
 392 0014 FFF7FEFF 		bl	CyIntSetVector
 393              	.LVL34:
 121:.\Generated_Source\PSoC5/ADC_SAR_1.c **** 
 394              		.loc 1 121 0
 395 0018 064A     		ldr	r2, .L34+4
 396 001a 1378     		ldrb	r3, [r2]	@ zero_extendqisi2
 397 001c 43F00603 		orr	r3, r3, #6
 398 0020 1370     		strb	r3, [r2]
 124:.\Generated_Source\PSoC5/ADC_SAR_1.c ****     ADC_SAR_1_offset = 0;
 399              		.loc 1 124 0
 400 0022 0C20     		movs	r0, #12
 401 0024 FFF7FEFF 		bl	ADC_SAR_1_SetResolution
 402              	.LVL35:
 125:.\Generated_Source\PSoC5/ADC_SAR_1.c **** }
 403              		.loc 1 125 0
 404 0028 0022     		movs	r2, #0
 405 002a 034B     		ldr	r3, .L34+8
 406 002c 1A80     		strh	r2, [r3]	@ movhi
 407 002e 08BD     		pop	{r3, pc}
 408              	.L35:
 409              		.align	2
 410              	.L34:
 411 0030 00000000 		.word	ADC_SAR_1_ISR
 412 0034 09590040 		.word	1073764617
 413 0038 00000000 		.word	ADC_SAR_1_offset
 414              		.cfi_endproc
 415              	.LFE1:
 416              		.size	ADC_SAR_1_Init, .-ADC_SAR_1_Init
 417              		.section	.text.ADC_SAR_1_Start,"ax",%progbits
 418              		.align	2
 419              		.global	ADC_SAR_1_Start
 420              		.thumb
 421              		.thumb_func
 422              		.type	ADC_SAR_1_Start, %function
 423              	ADC_SAR_1_Start:
 424              	.LFB0:
  75:.\Generated_Source\PSoC5/ADC_SAR_1.c **** 
ARM GAS  C:\Users\bwil410\AppData\Local\Temp\cc7k2h9F.s 			page 21


 425              		.loc 1 75 0
 426              		.cfi_startproc
 427              		@ args = 0, pretend = 0, frame = 0
 428              		@ frame_needed = 0, uses_anonymous_args = 0
 429 0000 08B5     		push	{r3, lr}
 430              		.cfi_def_cfa_offset 8
 431              		.cfi_offset 3, -8
 432              		.cfi_offset 14, -4
  78:.\Generated_Source\PSoC5/ADC_SAR_1.c ****     {
 433              		.loc 1 78 0
 434 0002 054B     		ldr	r3, .L39
 435 0004 1B78     		ldrb	r3, [r3]	@ zero_extendqisi2
 436 0006 23B9     		cbnz	r3, .L37
  80:.\Generated_Source\PSoC5/ADC_SAR_1.c ****         ADC_SAR_1_initVar = 1u;
 437              		.loc 1 80 0
 438 0008 FFF7FEFF 		bl	ADC_SAR_1_Init
 439              	.LVL36:
  81:.\Generated_Source\PSoC5/ADC_SAR_1.c ****     }
 440              		.loc 1 81 0
 441 000c 0122     		movs	r2, #1
 442 000e 024B     		ldr	r3, .L39
 443 0010 1A70     		strb	r2, [r3]
 444              	.L37:
  83:.\Generated_Source\PSoC5/ADC_SAR_1.c **** }
 445              		.loc 1 83 0
 446 0012 FFF7FEFF 		bl	ADC_SAR_1_Enable
 447              	.LVL37:
 448 0016 08BD     		pop	{r3, pc}
 449              	.L40:
 450              		.align	2
 451              	.L39:
 452 0018 00000000 		.word	.LANCHOR0
 453              		.cfi_endproc
 454              	.LFE0:
 455              		.size	ADC_SAR_1_Start, .-ADC_SAR_1_Start
 456              		.section	.text.ADC_SAR_1_StartConvert,"ax",%progbits
 457              		.align	2
 458              		.global	ADC_SAR_1_StartConvert
 459              		.thumb
 460              		.thumb_func
 461              		.type	ADC_SAR_1_StartConvert, %function
 462              	ADC_SAR_1_StartConvert:
 463              	.LFB6:
 402:.\Generated_Source\PSoC5/ADC_SAR_1.c ****         #if(ADC_SAR_1_DEFAULT_CONV_MODE != ADC_SAR_1__FREE_RUNNING)  /* If software triggered mode 
 464              		.loc 1 402 0
 465              		.cfi_startproc
 466              		@ args = 0, pretend = 0, frame = 0
 467              		@ frame_needed = 0, uses_anonymous_args = 0
 468              		@ link register save eliminated.
 408:.\Generated_Source\PSoC5/ADC_SAR_1.c ****     }
 469              		.loc 1 408 0
 470 0000 024A     		ldr	r2, .L42
 471 0002 1378     		ldrb	r3, [r2]	@ zero_extendqisi2
 472 0004 43F00103 		orr	r3, r3, #1
 473 0008 1370     		strb	r3, [r2]
 474 000a 7047     		bx	lr
 475              	.L43:
ARM GAS  C:\Users\bwil410\AppData\Local\Temp\cc7k2h9F.s 			page 22


 476              		.align	2
 477              	.L42:
 478 000c 08590040 		.word	1073764616
 479              		.cfi_endproc
 480              	.LFE6:
 481              		.size	ADC_SAR_1_StartConvert, .-ADC_SAR_1_StartConvert
 482              		.section	.text.ADC_SAR_1_StopConvert,"ax",%progbits
 483              		.align	2
 484              		.global	ADC_SAR_1_StopConvert
 485              		.thumb
 486              		.thumb_func
 487              		.type	ADC_SAR_1_StopConvert, %function
 488              	ADC_SAR_1_StopConvert:
 489              	.LFB7:
 436:.\Generated_Source\PSoC5/ADC_SAR_1.c ****         /* Stop all conversions */
 490              		.loc 1 436 0
 491              		.cfi_startproc
 492              		@ args = 0, pretend = 0, frame = 0
 493              		@ frame_needed = 0, uses_anonymous_args = 0
 494              		@ link register save eliminated.
 438:.\Generated_Source\PSoC5/ADC_SAR_1.c **** 
 495              		.loc 1 438 0
 496 0000 024A     		ldr	r2, .L45
 497 0002 1378     		ldrb	r3, [r2]	@ zero_extendqisi2
 498 0004 03F0FE03 		and	r3, r3, #254
 499 0008 1370     		strb	r3, [r2]
 500 000a 7047     		bx	lr
 501              	.L46:
 502              		.align	2
 503              	.L45:
 504 000c 08590040 		.word	1073764616
 505              		.cfi_endproc
 506              	.LFE7:
 507              		.size	ADC_SAR_1_StopConvert, .-ADC_SAR_1_StopConvert
 508              		.section	.text.ADC_SAR_1_IsEndConversion,"ax",%progbits
 509              		.align	2
 510              		.global	ADC_SAR_1_IsEndConversion
 511              		.thumb
 512              		.thumb_func
 513              		.type	ADC_SAR_1_IsEndConversion, %function
 514              	ADC_SAR_1_IsEndConversion:
 515              	.LFB8:
 476:.\Generated_Source\PSoC5/ADC_SAR_1.c ****     uint8 status;
 516              		.loc 1 476 0
 517              		.cfi_startproc
 518              		@ args = 0, pretend = 0, frame = 0
 519              		@ frame_needed = 0, uses_anonymous_args = 0
 520              	.LVL38:
 521 0000 10B5     		push	{r4, lr}
 522              		.cfi_def_cfa_offset 8
 523              		.cfi_offset 4, -8
 524              		.cfi_offset 14, -4
 525              	.L49:
 481:.\Generated_Source\PSoC5/ADC_SAR_1.c ****     } while ((status != ADC_SAR_1_SAR_EOF_1) && (retMode == ADC_SAR_1_WAIT_FOR_RESULT));
 526              		.loc 1 481 0 discriminator 2
 527 0002 074B     		ldr	r3, .L52
 528 0004 1B78     		ldrb	r3, [r3]	@ zero_extendqisi2
ARM GAS  C:\Users\bwil410\AppData\Local\Temp\cc7k2h9F.s 			page 23


 529              	.LVL39:
 482:.\Generated_Source\PSoC5/ADC_SAR_1.c ****     /* If convertion complete, wait until EOF bit released */
 530              		.loc 1 482 0 discriminator 2
 531 0006 13F00104 		ands	r4, r3, #1
 532 000a 01D1     		bne	.L48
 482:.\Generated_Source\PSoC5/ADC_SAR_1.c ****     /* If convertion complete, wait until EOF bit released */
 533              		.loc 1 482 0 is_stmt 0 discriminator 1
 534 000c 0028     		cmp	r0, #0
 535 000e F8D0     		beq	.L49
 536              	.L48:
 484:.\Generated_Source\PSoC5/ADC_SAR_1.c ****     {
 537              		.loc 1 484 0 is_stmt 1
 538 0010 24B1     		cbz	r4, .L50
 487:.\Generated_Source\PSoC5/ADC_SAR_1.c ****         /* Do the unconditional read operation of the CSR1 register to make sure the EOC bit has be
 539              		.loc 1 487 0
 540 0012 0120     		movs	r0, #1
 541              	.LVL40:
 542 0014 FFF7FEFF 		bl	CyDelayUs
 543              	.LVL41:
 489:.\Generated_Source\PSoC5/ADC_SAR_1.c ****     }
 544              		.loc 1 489 0
 545 0018 014B     		ldr	r3, .L52
 546 001a 1B78     		ldrb	r3, [r3]	@ zero_extendqisi2
 547              	.L50:
 493:.\Generated_Source\PSoC5/ADC_SAR_1.c **** 
 548              		.loc 1 493 0
 549 001c 2046     		mov	r0, r4
 550 001e 10BD     		pop	{r4, pc}
 551              	.L53:
 552              		.align	2
 553              	.L52:
 554 0020 09590040 		.word	1073764617
 555              		.cfi_endproc
 556              	.LFE8:
 557              		.size	ADC_SAR_1_IsEndConversion, .-ADC_SAR_1_IsEndConversion
 558              		.section	.text.ADC_SAR_1_GetResult8,"ax",%progbits
 559              		.align	2
 560              		.global	ADC_SAR_1_GetResult8
 561              		.thumb
 562              		.thumb_func
 563              		.type	ADC_SAR_1_GetResult8, %function
 564              	ADC_SAR_1_GetResult8:
 565              	.LFB9:
 521:.\Generated_Source\PSoC5/ADC_SAR_1.c ****     return( (int8)ADC_SAR_1_SAR_WRK0_REG - (int8)ADC_SAR_1_shift);
 566              		.loc 1 521 0
 567              		.cfi_startproc
 568              		@ args = 0, pretend = 0, frame = 0
 569              		@ frame_needed = 0, uses_anonymous_args = 0
 570              		@ link register save eliminated.
 522:.\Generated_Source\PSoC5/ADC_SAR_1.c **** }
 571              		.loc 1 522 0
 572 0000 034B     		ldr	r3, .L55
 573 0002 1B78     		ldrb	r3, [r3]	@ zero_extendqisi2
 574 0004 034A     		ldr	r2, .L55+4
 575 0006 1088     		ldrh	r0, [r2]
 576 0008 181A     		subs	r0, r3, r0
 523:.\Generated_Source\PSoC5/ADC_SAR_1.c **** 
ARM GAS  C:\Users\bwil410\AppData\Local\Temp\cc7k2h9F.s 			page 24


 577              		.loc 1 523 0
 578 000a 40B2     		sxtb	r0, r0
 579 000c 7047     		bx	lr
 580              	.L56:
 581 000e 00BF     		.align	2
 582              	.L55:
 583 0010 A25B0040 		.word	1073765282
 584 0014 00000000 		.word	ADC_SAR_1_shift
 585              		.cfi_endproc
 586              	.LFE9:
 587              		.size	ADC_SAR_1_GetResult8, .-ADC_SAR_1_GetResult8
 588              		.section	.text.ADC_SAR_1_GetResult16,"ax",%progbits
 589              		.align	2
 590              		.global	ADC_SAR_1_GetResult16
 591              		.thumb
 592              		.thumb_func
 593              		.type	ADC_SAR_1_GetResult16, %function
 594              	ADC_SAR_1_GetResult16:
 595              	.LFB10:
 551:.\Generated_Source\PSoC5/ADC_SAR_1.c ****     uint16 res;
 596              		.loc 1 551 0
 597              		.cfi_startproc
 598              		@ args = 0, pretend = 0, frame = 0
 599              		@ frame_needed = 0, uses_anonymous_args = 0
 600              		@ link register save eliminated.
 554:.\Generated_Source\PSoC5/ADC_SAR_1.c **** 
 601              		.loc 1 554 0
 602 0000 034B     		ldr	r3, .L58
 603 0002 1B88     		ldrh	r3, [r3]
 604              	.LVL42:
 556:.\Generated_Source\PSoC5/ADC_SAR_1.c **** }
 605              		.loc 1 556 0
 606 0004 034A     		ldr	r2, .L58+4
 607 0006 1088     		ldrh	r0, [r2]
 608 0008 181A     		subs	r0, r3, r0
 557:.\Generated_Source\PSoC5/ADC_SAR_1.c **** 
 609              		.loc 1 557 0
 610 000a 00B2     		sxth	r0, r0
 611 000c 7047     		bx	lr
 612              	.L59:
 613 000e 00BF     		.align	2
 614              	.L58:
 615 0010 A25B0040 		.word	1073765282
 616 0014 00000000 		.word	ADC_SAR_1_shift
 617              		.cfi_endproc
 618              	.LFE10:
 619              		.size	ADC_SAR_1_GetResult16, .-ADC_SAR_1_GetResult16
 620              		.section	.text.ADC_SAR_1_SetOffset,"ax",%progbits
 621              		.align	2
 622              		.global	ADC_SAR_1_SetOffset
 623              		.thumb
 624              		.thumb_func
 625              		.type	ADC_SAR_1_SetOffset, %function
 626              	ADC_SAR_1_SetOffset:
 627              	.LFB11:
 586:.\Generated_Source\PSoC5/ADC_SAR_1.c ****     ADC_SAR_1_offset = offset;
 628              		.loc 1 586 0
ARM GAS  C:\Users\bwil410\AppData\Local\Temp\cc7k2h9F.s 			page 25


 629              		.cfi_startproc
 630              		@ args = 0, pretend = 0, frame = 0
 631              		@ frame_needed = 0, uses_anonymous_args = 0
 632              		@ link register save eliminated.
 633              	.LVL43:
 587:.\Generated_Source\PSoC5/ADC_SAR_1.c **** }
 634              		.loc 1 587 0
 635 0000 014B     		ldr	r3, .L61
 636 0002 1880     		strh	r0, [r3]	@ movhi
 637 0004 7047     		bx	lr
 638              	.L62:
 639 0006 00BF     		.align	2
 640              	.L61:
 641 0008 00000000 		.word	ADC_SAR_1_offset
 642              		.cfi_endproc
 643              	.LFE11:
 644              		.size	ADC_SAR_1_SetOffset, .-ADC_SAR_1_SetOffset
 645              		.section	.text.ADC_SAR_1_SetGain,"ax",%progbits
 646              		.align	2
 647              		.global	ADC_SAR_1_SetGain
 648              		.thumb
 649              		.thumb_func
 650              		.type	ADC_SAR_1_SetGain, %function
 651              	ADC_SAR_1_SetGain:
 652              	.LFB13:
 665:.\Generated_Source\PSoC5/ADC_SAR_1.c ****     #else
 666:.\Generated_Source\PSoC5/ADC_SAR_1.c ****         ADC_SAR_1_shift = diff_zero;
 667:.\Generated_Source\PSoC5/ADC_SAR_1.c ****     #endif /* End ADC_SAR_1_DEFAULT_RANGE */
 668:.\Generated_Source\PSoC5/ADC_SAR_1.c **** }
 669:.\Generated_Source\PSoC5/ADC_SAR_1.c **** 
 670:.\Generated_Source\PSoC5/ADC_SAR_1.c **** 
 671:.\Generated_Source\PSoC5/ADC_SAR_1.c **** /*******************************************************************************
 672:.\Generated_Source\PSoC5/ADC_SAR_1.c **** * Function Name: ADC_SAR_1_SetGain
 673:.\Generated_Source\PSoC5/ADC_SAR_1.c **** ********************************************************************************
 674:.\Generated_Source\PSoC5/ADC_SAR_1.c **** *
 675:.\Generated_Source\PSoC5/ADC_SAR_1.c **** * Summary:
 676:.\Generated_Source\PSoC5/ADC_SAR_1.c **** *  Sets the ADC gain in counts per volt for the voltage conversion functions
 677:.\Generated_Source\PSoC5/ADC_SAR_1.c **** *  that follow. This value is set by default by the reference and input range
 678:.\Generated_Source\PSoC5/ADC_SAR_1.c **** *  settings. It should only be used to further calibrate the ADC with a known
 679:.\Generated_Source\PSoC5/ADC_SAR_1.c **** *  input or if the ADC is using an external reference.
 680:.\Generated_Source\PSoC5/ADC_SAR_1.c **** *
 681:.\Generated_Source\PSoC5/ADC_SAR_1.c **** * Parameters:
 682:.\Generated_Source\PSoC5/ADC_SAR_1.c **** *  int16 adcGain counts per volt
 683:.\Generated_Source\PSoC5/ADC_SAR_1.c **** *
 684:.\Generated_Source\PSoC5/ADC_SAR_1.c **** * Return:
 685:.\Generated_Source\PSoC5/ADC_SAR_1.c **** *  None.
 686:.\Generated_Source\PSoC5/ADC_SAR_1.c **** *
 687:.\Generated_Source\PSoC5/ADC_SAR_1.c **** * Global Variables:
 688:.\Generated_Source\PSoC5/ADC_SAR_1.c **** *  ADC_SAR_1_countsPer10Volt variable modified. This variable is used
 689:.\Generated_Source\PSoC5/ADC_SAR_1.c **** *  for gain calibration purpose.
 690:.\Generated_Source\PSoC5/ADC_SAR_1.c **** *
 691:.\Generated_Source\PSoC5/ADC_SAR_1.c **** *******************************************************************************/
 692:.\Generated_Source\PSoC5/ADC_SAR_1.c **** void ADC_SAR_1_SetGain(int16 adcGain)
 693:.\Generated_Source\PSoC5/ADC_SAR_1.c **** {
 653              		.loc 1 693 0
 654              		.cfi_startproc
 655              		@ args = 0, pretend = 0, frame = 0
ARM GAS  C:\Users\bwil410\AppData\Local\Temp\cc7k2h9F.s 			page 26


 656              		@ frame_needed = 0, uses_anonymous_args = 0
 657              		@ link register save eliminated.
 658              	.LVL44:
 694:.\Generated_Source\PSoC5/ADC_SAR_1.c ****     ADC_SAR_1_countsPer10Volt = (int32)adcGain * 10;
 659              		.loc 1 694 0
 660 0000 00EB8000 		add	r0, r0, r0, lsl #2
 661              	.LVL45:
 662 0004 4000     		lsls	r0, r0, #1
 663 0006 014B     		ldr	r3, .L64
 664 0008 1860     		str	r0, [r3]
 665 000a 7047     		bx	lr
 666              	.L65:
 667              		.align	2
 668              	.L64:
 669 000c 00000000 		.word	ADC_SAR_1_countsPer10Volt
 670              		.cfi_endproc
 671              	.LFE13:
 672              		.size	ADC_SAR_1_SetGain, .-ADC_SAR_1_SetGain
 673              		.section	.text.ADC_SAR_1_SetScaledGain,"ax",%progbits
 674              		.align	2
 675              		.global	ADC_SAR_1_SetScaledGain
 676              		.thumb
 677              		.thumb_func
 678              		.type	ADC_SAR_1_SetScaledGain, %function
 679              	ADC_SAR_1_SetScaledGain:
 680              	.LFB14:
 695:.\Generated_Source\PSoC5/ADC_SAR_1.c **** }
 696:.\Generated_Source\PSoC5/ADC_SAR_1.c **** 
 697:.\Generated_Source\PSoC5/ADC_SAR_1.c **** 
 698:.\Generated_Source\PSoC5/ADC_SAR_1.c **** /*******************************************************************************
 699:.\Generated_Source\PSoC5/ADC_SAR_1.c **** * Function Name: ADC_SAR_1_SetScaledGain
 700:.\Generated_Source\PSoC5/ADC_SAR_1.c **** ********************************************************************************
 701:.\Generated_Source\PSoC5/ADC_SAR_1.c **** *
 702:.\Generated_Source\PSoC5/ADC_SAR_1.c **** * Summary:
 703:.\Generated_Source\PSoC5/ADC_SAR_1.c **** *  Sets the ADC gain in counts per 10 volt for the voltage conversion functions
 704:.\Generated_Source\PSoC5/ADC_SAR_1.c **** *  that follow. This value is set by default by the reference and input range
 705:.\Generated_Source\PSoC5/ADC_SAR_1.c **** *  settings. It should only be used to further calibrate the ADC with a known
 706:.\Generated_Source\PSoC5/ADC_SAR_1.c **** *  input or if the ADC is using an external reference.
 707:.\Generated_Source\PSoC5/ADC_SAR_1.c **** *
 708:.\Generated_Source\PSoC5/ADC_SAR_1.c **** * Parameters:
 709:.\Generated_Source\PSoC5/ADC_SAR_1.c **** *  int32 adcGain  counts per 10 volt
 710:.\Generated_Source\PSoC5/ADC_SAR_1.c **** *
 711:.\Generated_Source\PSoC5/ADC_SAR_1.c **** * Return:
 712:.\Generated_Source\PSoC5/ADC_SAR_1.c **** *  None.
 713:.\Generated_Source\PSoC5/ADC_SAR_1.c **** *
 714:.\Generated_Source\PSoC5/ADC_SAR_1.c **** * Global Variables:
 715:.\Generated_Source\PSoC5/ADC_SAR_1.c **** *  ADC_SAR_1_countsPer10Volt variable modified. This variable is used
 716:.\Generated_Source\PSoC5/ADC_SAR_1.c **** *  for gain calibration purpose.
 717:.\Generated_Source\PSoC5/ADC_SAR_1.c **** *
 718:.\Generated_Source\PSoC5/ADC_SAR_1.c **** *******************************************************************************/
 719:.\Generated_Source\PSoC5/ADC_SAR_1.c **** void ADC_SAR_1_SetScaledGain(int32 adcGain)
 720:.\Generated_Source\PSoC5/ADC_SAR_1.c **** {
 681              		.loc 1 720 0
 682              		.cfi_startproc
 683              		@ args = 0, pretend = 0, frame = 0
 684              		@ frame_needed = 0, uses_anonymous_args = 0
 685              		@ link register save eliminated.
ARM GAS  C:\Users\bwil410\AppData\Local\Temp\cc7k2h9F.s 			page 27


 686              	.LVL46:
 721:.\Generated_Source\PSoC5/ADC_SAR_1.c ****     ADC_SAR_1_countsPer10Volt = adcGain;
 687              		.loc 1 721 0
 688 0000 014B     		ldr	r3, .L67
 689 0002 1860     		str	r0, [r3]
 690 0004 7047     		bx	lr
 691              	.L68:
 692 0006 00BF     		.align	2
 693              	.L67:
 694 0008 00000000 		.word	ADC_SAR_1_countsPer10Volt
 695              		.cfi_endproc
 696              	.LFE14:
 697              		.size	ADC_SAR_1_SetScaledGain, .-ADC_SAR_1_SetScaledGain
 698              		.section	.text.ADC_SAR_1_CountsTo_mVolts,"ax",%progbits
 699              		.align	2
 700              		.global	ADC_SAR_1_CountsTo_mVolts
 701              		.thumb
 702              		.thumb_func
 703              		.type	ADC_SAR_1_CountsTo_mVolts, %function
 704              	ADC_SAR_1_CountsTo_mVolts:
 705              	.LFB15:
 722:.\Generated_Source\PSoC5/ADC_SAR_1.c **** }
 723:.\Generated_Source\PSoC5/ADC_SAR_1.c **** 
 724:.\Generated_Source\PSoC5/ADC_SAR_1.c **** 
 725:.\Generated_Source\PSoC5/ADC_SAR_1.c **** /*******************************************************************************
 726:.\Generated_Source\PSoC5/ADC_SAR_1.c **** * Function Name: ADC_SAR_1_CountsTo_mVolts
 727:.\Generated_Source\PSoC5/ADC_SAR_1.c **** ********************************************************************************
 728:.\Generated_Source\PSoC5/ADC_SAR_1.c **** *
 729:.\Generated_Source\PSoC5/ADC_SAR_1.c **** * Summary:
 730:.\Generated_Source\PSoC5/ADC_SAR_1.c **** *  Converts the ADC output to millivolts as a 16-bit integer.
 731:.\Generated_Source\PSoC5/ADC_SAR_1.c **** *
 732:.\Generated_Source\PSoC5/ADC_SAR_1.c **** * Parameters:
 733:.\Generated_Source\PSoC5/ADC_SAR_1.c **** *  int16 adcCounts:  Result from the ADC conversion
 734:.\Generated_Source\PSoC5/ADC_SAR_1.c **** *
 735:.\Generated_Source\PSoC5/ADC_SAR_1.c **** * Return:
 736:.\Generated_Source\PSoC5/ADC_SAR_1.c **** *  int16 Result in mVolts
 737:.\Generated_Source\PSoC5/ADC_SAR_1.c **** *
 738:.\Generated_Source\PSoC5/ADC_SAR_1.c **** * Global Variables:
 739:.\Generated_Source\PSoC5/ADC_SAR_1.c **** *  ADC_SAR_1_offset variable used.
 740:.\Generated_Source\PSoC5/ADC_SAR_1.c **** *  ADC_SAR_1_countsPer10Volt variable used.
 741:.\Generated_Source\PSoC5/ADC_SAR_1.c **** *
 742:.\Generated_Source\PSoC5/ADC_SAR_1.c **** *******************************************************************************/
 743:.\Generated_Source\PSoC5/ADC_SAR_1.c **** int16 ADC_SAR_1_CountsTo_mVolts(int16 adcCounts)
 744:.\Generated_Source\PSoC5/ADC_SAR_1.c **** {
 706              		.loc 1 744 0
 707              		.cfi_startproc
 708              		@ args = 0, pretend = 0, frame = 0
 709              		@ frame_needed = 0, uses_anonymous_args = 0
 710              		@ link register save eliminated.
 711              	.LVL47:
 745:.\Generated_Source\PSoC5/ADC_SAR_1.c ****     int16 mVolts;
 746:.\Generated_Source\PSoC5/ADC_SAR_1.c ****     int32 countsPer10Volt;
 747:.\Generated_Source\PSoC5/ADC_SAR_1.c **** 
 748:.\Generated_Source\PSoC5/ADC_SAR_1.c ****     if(ADC_SAR_1_countsPerVolt != 0)
 712              		.loc 1 748 0
 713 0000 114B     		ldr	r3, .L74
 714 0002 1B88     		ldrh	r3, [r3]
ARM GAS  C:\Users\bwil410\AppData\Local\Temp\cc7k2h9F.s 			page 28


 715 0004 9BB2     		uxth	r3, r3
 716 0006 33B1     		cbz	r3, .L70
 749:.\Generated_Source\PSoC5/ADC_SAR_1.c ****     {   /* Support obsolete method */
 750:.\Generated_Source\PSoC5/ADC_SAR_1.c ****         countsPer10Volt = (int32)ADC_SAR_1_countsPerVolt * 10;
 717              		.loc 1 750 0
 718 0008 0F4B     		ldr	r3, .L74
 719 000a 1988     		ldrh	r1, [r3]
 720 000c 09B2     		sxth	r1, r1
 721 000e 01EB8101 		add	r1, r1, r1, lsl #2
 722 0012 4900     		lsls	r1, r1, #1
 723              	.LVL48:
 724 0014 01E0     		b	.L71
 725              	.LVL49:
 726              	.L70:
 751:.\Generated_Source\PSoC5/ADC_SAR_1.c ****     }
 752:.\Generated_Source\PSoC5/ADC_SAR_1.c ****     else
 753:.\Generated_Source\PSoC5/ADC_SAR_1.c ****     {
 754:.\Generated_Source\PSoC5/ADC_SAR_1.c ****         countsPer10Volt = ADC_SAR_1_countsPer10Volt;
 727              		.loc 1 754 0
 728 0016 0D4B     		ldr	r3, .L74+4
 729 0018 1968     		ldr	r1, [r3]
 730              	.LVL50:
 731              	.L71:
 755:.\Generated_Source\PSoC5/ADC_SAR_1.c ****     }
 756:.\Generated_Source\PSoC5/ADC_SAR_1.c **** 
 757:.\Generated_Source\PSoC5/ADC_SAR_1.c ****     /* Subtract ADC offset */
 758:.\Generated_Source\PSoC5/ADC_SAR_1.c ****     adcCounts -= ADC_SAR_1_offset;
 732              		.loc 1 758 0
 733 001a 0D4B     		ldr	r3, .L74+8
 734 001c 1A88     		ldrh	r2, [r3]
 735 001e 821A     		subs	r2, r0, r2
 736 0020 12B2     		sxth	r2, r2
 737              	.LVL51:
 759:.\Generated_Source\PSoC5/ADC_SAR_1.c ****     /* Convert to millivolts with rounding */
 760:.\Generated_Source\PSoC5/ADC_SAR_1.c ****     mVolts = (int16)( (( (int32)adcCounts * ADC_SAR_1_10MV_COUNTS ) + ( (adcCounts > 0) ?
 738              		.loc 1 760 0
 739 0022 42F21070 		movw	r0, #10000
 740 0026 00FB02F0 		mul	r0, r0, r2
 761:.\Generated_Source\PSoC5/ADC_SAR_1.c ****                        (countsPer10Volt / 2) : (-(countsPer10Volt / 2)) )) / countsPer10Volt);
 741              		.loc 1 761 0
 742 002a 002A     		cmp	r2, #0
 743 002c 03DD     		ble	.L72
 744              		.loc 1 761 0 is_stmt 0 discriminator 1
 745 002e 01EBD173 		add	r3, r1, r1, lsr #31
 746 0032 5B10     		asrs	r3, r3, #1
 747 0034 03E0     		b	.L73
 748              	.L72:
 749              		.loc 1 761 0 discriminator 2
 750 0036 01EBD172 		add	r2, r1, r1, lsr #31
 751              	.LVL52:
 752 003a 5210     		asrs	r2, r2, #1
 753 003c 5342     		negs	r3, r2
 754              	.L73:
 760:.\Generated_Source\PSoC5/ADC_SAR_1.c ****                        (countsPer10Volt / 2) : (-(countsPer10Volt / 2)) )) / countsPer10Volt);
 755              		.loc 1 760 0 is_stmt 1
 756 003e 0344     		add	r3, r3, r0
 757              		.loc 1 761 0
ARM GAS  C:\Users\bwil410\AppData\Local\Temp\cc7k2h9F.s 			page 29


 758 0040 93FBF1F0 		sdiv	r0, r3, r1
 759              	.LVL53:
 762:.\Generated_Source\PSoC5/ADC_SAR_1.c **** 
 763:.\Generated_Source\PSoC5/ADC_SAR_1.c ****     return( mVolts );
 764:.\Generated_Source\PSoC5/ADC_SAR_1.c **** }
 760              		.loc 1 764 0
 761 0044 00B2     		sxth	r0, r0
 762 0046 7047     		bx	lr
 763              	.L75:
 764              		.align	2
 765              	.L74:
 766 0048 00000000 		.word	ADC_SAR_1_countsPerVolt
 767 004c 00000000 		.word	ADC_SAR_1_countsPer10Volt
 768 0050 00000000 		.word	ADC_SAR_1_offset
 769              		.cfi_endproc
 770              	.LFE15:
 771              		.size	ADC_SAR_1_CountsTo_mVolts, .-ADC_SAR_1_CountsTo_mVolts
 772              		.global	__aeabi_ldivmod
 773              		.section	.text.ADC_SAR_1_CountsTo_uVolts,"ax",%progbits
 774              		.align	2
 775              		.global	ADC_SAR_1_CountsTo_uVolts
 776              		.thumb
 777              		.thumb_func
 778              		.type	ADC_SAR_1_CountsTo_uVolts, %function
 779              	ADC_SAR_1_CountsTo_uVolts:
 780              	.LFB16:
 765:.\Generated_Source\PSoC5/ADC_SAR_1.c **** 
 766:.\Generated_Source\PSoC5/ADC_SAR_1.c **** 
 767:.\Generated_Source\PSoC5/ADC_SAR_1.c **** /*******************************************************************************
 768:.\Generated_Source\PSoC5/ADC_SAR_1.c **** * Function Name: ADC_SAR_1_CountsTo_uVolts
 769:.\Generated_Source\PSoC5/ADC_SAR_1.c **** ********************************************************************************
 770:.\Generated_Source\PSoC5/ADC_SAR_1.c **** *
 771:.\Generated_Source\PSoC5/ADC_SAR_1.c **** * Summary:
 772:.\Generated_Source\PSoC5/ADC_SAR_1.c **** *  Converts the ADC output to microvolts as a 32-bit integer.
 773:.\Generated_Source\PSoC5/ADC_SAR_1.c **** *
 774:.\Generated_Source\PSoC5/ADC_SAR_1.c **** * Parameters:
 775:.\Generated_Source\PSoC5/ADC_SAR_1.c **** *  int16 adcCounts: Result from the ADC conversion
 776:.\Generated_Source\PSoC5/ADC_SAR_1.c **** *
 777:.\Generated_Source\PSoC5/ADC_SAR_1.c **** * Return:
 778:.\Generated_Source\PSoC5/ADC_SAR_1.c **** *  int32 Result in micro Volts
 779:.\Generated_Source\PSoC5/ADC_SAR_1.c **** *
 780:.\Generated_Source\PSoC5/ADC_SAR_1.c **** * Global Variables:
 781:.\Generated_Source\PSoC5/ADC_SAR_1.c **** *  ADC_SAR_1_offset variable used.
 782:.\Generated_Source\PSoC5/ADC_SAR_1.c **** *  ADC_SAR_1_countsPer10Volt used to convert ADC counts to uVolts.
 783:.\Generated_Source\PSoC5/ADC_SAR_1.c **** *
 784:.\Generated_Source\PSoC5/ADC_SAR_1.c **** *******************************************************************************/
 785:.\Generated_Source\PSoC5/ADC_SAR_1.c **** int32 ADC_SAR_1_CountsTo_uVolts(int16 adcCounts)
 786:.\Generated_Source\PSoC5/ADC_SAR_1.c **** {
 781              		.loc 1 786 0
 782              		.cfi_startproc
 783              		@ args = 0, pretend = 0, frame = 0
 784              		@ frame_needed = 0, uses_anonymous_args = 0
 785              	.LVL54:
 786 0000 38B5     		push	{r3, r4, r5, lr}
 787              		.cfi_def_cfa_offset 16
 788              		.cfi_offset 3, -16
 789              		.cfi_offset 4, -12
ARM GAS  C:\Users\bwil410\AppData\Local\Temp\cc7k2h9F.s 			page 30


 790              		.cfi_offset 5, -8
 791              		.cfi_offset 14, -4
 787:.\Generated_Source\PSoC5/ADC_SAR_1.c **** 
 788:.\Generated_Source\PSoC5/ADC_SAR_1.c ****     int64 uVolts;
 789:.\Generated_Source\PSoC5/ADC_SAR_1.c ****     int32 countsPer10Volt;
 790:.\Generated_Source\PSoC5/ADC_SAR_1.c **** 
 791:.\Generated_Source\PSoC5/ADC_SAR_1.c ****     if(ADC_SAR_1_countsPerVolt != 0)
 792              		.loc 1 791 0
 793 0002 0D4B     		ldr	r3, .L80
 794 0004 1B88     		ldrh	r3, [r3]
 795 0006 9BB2     		uxth	r3, r3
 796 0008 33B1     		cbz	r3, .L77
 792:.\Generated_Source\PSoC5/ADC_SAR_1.c ****     {   /* Support obsolete method */
 793:.\Generated_Source\PSoC5/ADC_SAR_1.c ****         countsPer10Volt = (int32)ADC_SAR_1_countsPerVolt * 10;
 797              		.loc 1 793 0
 798 000a 0B4B     		ldr	r3, .L80
 799 000c 1A88     		ldrh	r2, [r3]
 800 000e 12B2     		sxth	r2, r2
 801 0010 02EB8202 		add	r2, r2, r2, lsl #2
 802 0014 5200     		lsls	r2, r2, #1
 803              	.LVL55:
 804 0016 01E0     		b	.L78
 805              	.LVL56:
 806              	.L77:
 794:.\Generated_Source\PSoC5/ADC_SAR_1.c ****     }
 795:.\Generated_Source\PSoC5/ADC_SAR_1.c ****     else
 796:.\Generated_Source\PSoC5/ADC_SAR_1.c ****     {
 797:.\Generated_Source\PSoC5/ADC_SAR_1.c ****         countsPer10Volt = ADC_SAR_1_countsPer10Volt;
 807              		.loc 1 797 0
 808 0018 084B     		ldr	r3, .L80+4
 809 001a 1A68     		ldr	r2, [r3]
 810              	.LVL57:
 811              	.L78:
 798:.\Generated_Source\PSoC5/ADC_SAR_1.c ****     }
 799:.\Generated_Source\PSoC5/ADC_SAR_1.c **** 
 800:.\Generated_Source\PSoC5/ADC_SAR_1.c ****     /* Subtract ADC offset */
 801:.\Generated_Source\PSoC5/ADC_SAR_1.c ****     adcCounts -= ADC_SAR_1_offset;
 812              		.loc 1 801 0
 813 001c 084B     		ldr	r3, .L80+8
 814 001e 1C88     		ldrh	r4, [r3]
 815              	.LVL58:
 802:.\Generated_Source\PSoC5/ADC_SAR_1.c ****     /* To convert adcCounts to microVolts it is required to be multiplied
 803:.\Generated_Source\PSoC5/ADC_SAR_1.c ****     *  on 10 million and later divide on gain in counts per 10V.
 804:.\Generated_Source\PSoC5/ADC_SAR_1.c ****     */
 805:.\Generated_Source\PSoC5/ADC_SAR_1.c ****     uVolts = (( (int64)adcCounts * ADC_SAR_1_10UV_COUNTS ) / countsPer10Volt);
 816              		.loc 1 805 0
 817 0020 041B     		subs	r4, r0, r4
 818              	.LVL59:
 819 0022 24B2     		sxth	r4, r4
 820 0024 E517     		asrs	r5, r4, #31
 821 0026 074B     		ldr	r3, .L80+12
 822 0028 A4FB0301 		umull	r0, r1, r4, r3
 823 002c 03FB0511 		mla	r1, r3, r5, r1
 824 0030 D317     		asrs	r3, r2, #31
 825 0032 FFF7FEFF 		bl	__aeabi_ldivmod
 826              	.LVL60:
 806:.\Generated_Source\PSoC5/ADC_SAR_1.c **** 
ARM GAS  C:\Users\bwil410\AppData\Local\Temp\cc7k2h9F.s 			page 31


 807:.\Generated_Source\PSoC5/ADC_SAR_1.c ****     return( uVolts );
 808:.\Generated_Source\PSoC5/ADC_SAR_1.c **** }
 827              		.loc 1 808 0
 828 0036 38BD     		pop	{r3, r4, r5, pc}
 829              	.L81:
 830              		.align	2
 831              	.L80:
 832 0038 00000000 		.word	ADC_SAR_1_countsPerVolt
 833 003c 00000000 		.word	ADC_SAR_1_countsPer10Volt
 834 0040 00000000 		.word	ADC_SAR_1_offset
 835 0044 80969800 		.word	10000000
 836              		.cfi_endproc
 837              	.LFE16:
 838              		.size	ADC_SAR_1_CountsTo_uVolts, .-ADC_SAR_1_CountsTo_uVolts
 839              		.global	__aeabi_i2f
 840              		.global	__aeabi_fmul
 841              		.global	__aeabi_fdiv
 842              		.section	.text.ADC_SAR_1_CountsTo_Volts,"ax",%progbits
 843              		.align	2
 844              		.global	ADC_SAR_1_CountsTo_Volts
 845              		.thumb
 846              		.thumb_func
 847              		.type	ADC_SAR_1_CountsTo_Volts, %function
 848              	ADC_SAR_1_CountsTo_Volts:
 849              	.LFB17:
 809:.\Generated_Source\PSoC5/ADC_SAR_1.c **** 
 810:.\Generated_Source\PSoC5/ADC_SAR_1.c **** 
 811:.\Generated_Source\PSoC5/ADC_SAR_1.c **** /*******************************************************************************
 812:.\Generated_Source\PSoC5/ADC_SAR_1.c **** * Function Name: ADC_SAR_1_CountsTo_Volts
 813:.\Generated_Source\PSoC5/ADC_SAR_1.c **** ********************************************************************************
 814:.\Generated_Source\PSoC5/ADC_SAR_1.c **** *
 815:.\Generated_Source\PSoC5/ADC_SAR_1.c **** * Summary:
 816:.\Generated_Source\PSoC5/ADC_SAR_1.c **** *  Converts the ADC output to volts as a floating-point number.
 817:.\Generated_Source\PSoC5/ADC_SAR_1.c **** *
 818:.\Generated_Source\PSoC5/ADC_SAR_1.c **** * Parameters:
 819:.\Generated_Source\PSoC5/ADC_SAR_1.c **** *  int16 adcCounts: Result from the ADC conversion
 820:.\Generated_Source\PSoC5/ADC_SAR_1.c **** *
 821:.\Generated_Source\PSoC5/ADC_SAR_1.c **** * Return:
 822:.\Generated_Source\PSoC5/ADC_SAR_1.c **** *  float Result in Volts
 823:.\Generated_Source\PSoC5/ADC_SAR_1.c **** *
 824:.\Generated_Source\PSoC5/ADC_SAR_1.c **** * Global Variables:
 825:.\Generated_Source\PSoC5/ADC_SAR_1.c **** *  ADC_SAR_1_offset variable used.
 826:.\Generated_Source\PSoC5/ADC_SAR_1.c **** *  ADC_SAR_1_countsPer10Volt used to convert ADC counts to Volts.
 827:.\Generated_Source\PSoC5/ADC_SAR_1.c **** *
 828:.\Generated_Source\PSoC5/ADC_SAR_1.c **** *******************************************************************************/
 829:.\Generated_Source\PSoC5/ADC_SAR_1.c **** float32 ADC_SAR_1_CountsTo_Volts(int16 adcCounts)
 830:.\Generated_Source\PSoC5/ADC_SAR_1.c **** {
 850              		.loc 1 830 0
 851              		.cfi_startproc
 852              		@ args = 0, pretend = 0, frame = 0
 853              		@ frame_needed = 0, uses_anonymous_args = 0
 854              	.LVL61:
 855 0000 38B5     		push	{r3, r4, r5, lr}
 856              		.cfi_def_cfa_offset 16
 857              		.cfi_offset 3, -16
 858              		.cfi_offset 4, -12
 859              		.cfi_offset 5, -8
ARM GAS  C:\Users\bwil410\AppData\Local\Temp\cc7k2h9F.s 			page 32


 860              		.cfi_offset 14, -4
 831:.\Generated_Source\PSoC5/ADC_SAR_1.c ****     float32 volts;
 832:.\Generated_Source\PSoC5/ADC_SAR_1.c ****     int32 countsPer10Volt;
 833:.\Generated_Source\PSoC5/ADC_SAR_1.c **** 
 834:.\Generated_Source\PSoC5/ADC_SAR_1.c ****     if(ADC_SAR_1_countsPerVolt != 0)
 861              		.loc 1 834 0
 862 0002 0F4B     		ldr	r3, .L86
 863 0004 1B88     		ldrh	r3, [r3]
 864 0006 9BB2     		uxth	r3, r3
 865 0008 33B1     		cbz	r3, .L83
 835:.\Generated_Source\PSoC5/ADC_SAR_1.c ****     {   /* Support obsolete method */
 836:.\Generated_Source\PSoC5/ADC_SAR_1.c ****         countsPer10Volt = (int32)ADC_SAR_1_countsPerVolt * 10;
 866              		.loc 1 836 0
 867 000a 0D4B     		ldr	r3, .L86
 868 000c 1C88     		ldrh	r4, [r3]
 869 000e 24B2     		sxth	r4, r4
 870 0010 04EB8404 		add	r4, r4, r4, lsl #2
 871 0014 6400     		lsls	r4, r4, #1
 872              	.LVL62:
 873 0016 01E0     		b	.L84
 874              	.LVL63:
 875              	.L83:
 837:.\Generated_Source\PSoC5/ADC_SAR_1.c ****     }
 838:.\Generated_Source\PSoC5/ADC_SAR_1.c ****     else
 839:.\Generated_Source\PSoC5/ADC_SAR_1.c ****     {
 840:.\Generated_Source\PSoC5/ADC_SAR_1.c ****         countsPer10Volt = ADC_SAR_1_countsPer10Volt;
 876              		.loc 1 840 0
 877 0018 0A4B     		ldr	r3, .L86+4
 878 001a 1C68     		ldr	r4, [r3]
 879              	.LVL64:
 880              	.L84:
 841:.\Generated_Source\PSoC5/ADC_SAR_1.c ****     }
 842:.\Generated_Source\PSoC5/ADC_SAR_1.c **** 
 843:.\Generated_Source\PSoC5/ADC_SAR_1.c ****     /* Subtract ADC offset */
 844:.\Generated_Source\PSoC5/ADC_SAR_1.c ****     adcCounts -= ADC_SAR_1_offset;
 881              		.loc 1 844 0
 882 001c 0A4B     		ldr	r3, .L86+8
 883 001e 1B88     		ldrh	r3, [r3]
 884 0020 C01A     		subs	r0, r0, r3
 885              	.LVL65:
 845:.\Generated_Source\PSoC5/ADC_SAR_1.c **** 
 846:.\Generated_Source\PSoC5/ADC_SAR_1.c ****     volts = ((float32)adcCounts * ADC_SAR_1_10V_COUNTS) / (float32)countsPer10Volt;
 886              		.loc 1 846 0
 887 0022 00B2     		sxth	r0, r0
 888 0024 FFF7FEFF 		bl	__aeabi_i2f
 889              	.LVL66:
 890 0028 0849     		ldr	r1, .L86+12
 891 002a FFF7FEFF 		bl	__aeabi_fmul
 892              	.LVL67:
 893 002e 0546     		mov	r5, r0
 894 0030 2046     		mov	r0, r4
 895 0032 FFF7FEFF 		bl	__aeabi_i2f
 896              	.LVL68:
 897 0036 0146     		mov	r1, r0
 898 0038 2846     		mov	r0, r5
 899 003a FFF7FEFF 		bl	__aeabi_fdiv
 900              	.LVL69:
ARM GAS  C:\Users\bwil410\AppData\Local\Temp\cc7k2h9F.s 			page 33


 847:.\Generated_Source\PSoC5/ADC_SAR_1.c **** 
 848:.\Generated_Source\PSoC5/ADC_SAR_1.c ****     return( volts );
 849:.\Generated_Source\PSoC5/ADC_SAR_1.c **** }
 901              		.loc 1 849 0
 902 003e 38BD     		pop	{r3, r4, r5, pc}
 903              	.LVL70:
 904              	.L87:
 905              		.align	2
 906              	.L86:
 907 0040 00000000 		.word	ADC_SAR_1_countsPerVolt
 908 0044 00000000 		.word	ADC_SAR_1_countsPer10Volt
 909 0048 00000000 		.word	ADC_SAR_1_offset
 910 004c 00002041 		.word	1092616192
 911              		.cfi_endproc
 912              	.LFE17:
 913              		.size	ADC_SAR_1_CountsTo_Volts, .-ADC_SAR_1_CountsTo_Volts
 914              		.comm	ADC_SAR_1_shift,2,2
 915              		.comm	ADC_SAR_1_countsPer10Volt,4,4
 916              		.comm	ADC_SAR_1_countsPerVolt,2,2
 917              		.comm	ADC_SAR_1_offset,2,2
 918              		.global	ADC_SAR_1_initVar
 919              		.bss
 920              		.set	.LANCHOR0,. + 0
 921              		.type	ADC_SAR_1_initVar, %object
 922              		.size	ADC_SAR_1_initVar, 1
 923              	ADC_SAR_1_initVar:
 924 0000 00       		.space	1
 925              		.text
 926              	.Letext0:
 927              		.file 2 ".\\Generated_Source\\PSoC5\\cytypes.h"
 928              		.file 3 ".\\Generated_Source\\PSoC5\\CyLib.h"
 929              		.file 4 ".\\Generated_Source\\PSoC5\\ADC_SAR_1_theACLK.h"