ARM GAS  C:\Users\bwil410\AppData\Local\Temp\cc206nDe.s 			page 1


   1              		.syntax unified
   2              		.cpu cortex-m3
   3              		.fpu softvfp
   4              		.eabi_attribute 20, 1
   5              		.eabi_attribute 21, 1
   6              		.eabi_attribute 23, 3
   7              		.eabi_attribute 24, 1
   8              		.eabi_attribute 25, 1
   9              		.eabi_attribute 26, 1
  10              		.eabi_attribute 30, 1
  11              		.eabi_attribute 34, 1
  12              		.eabi_attribute 18, 4
  13              		.thumb
  14              		.file	"Astarpathfinding.c"
  15              		.text
  16              	.Ltext0:
  17              		.cfi_sections	.debug_frame
  18              		.global	__aeabi_i2d
  19              		.global	__aeabi_d2iz
  20              		.section	.text.Pathfinder,"ax",%progbits
  21              		.align	2
  22              		.global	Pathfinder
  23              		.thumb
  24              		.thumb_func
  25              		.type	Pathfinder, %function
  26              	Pathfinder:
  27              	.LFB0:
  28              		.file 1 ".\\Astarpathfinding.c"
   1:.\Astarpathfinding.c **** 
   2:.\Astarpathfinding.c **** #include <Astarpathfinding.h>
   3:.\Astarpathfinding.c **** 
   4:.\Astarpathfinding.c **** void Pathfinder (start_x,start_y,end_x,end_y){
  29              		.loc 1 4 0
  30              		.cfi_startproc
  31              		@ args = 0, pretend = 0, frame = 192
  32              		@ frame_needed = 0, uses_anonymous_args = 0
  33              	.LVL0:
  34 0000 2DE9F04F 		push	{r4, r5, r6, r7, r8, r9, r10, fp, lr}
  35              		.cfi_def_cfa_offset 36
  36              		.cfi_offset 4, -36
  37              		.cfi_offset 5, -32
  38              		.cfi_offset 6, -28
  39              		.cfi_offset 7, -24
  40              		.cfi_offset 8, -20
  41              		.cfi_offset 9, -16
  42              		.cfi_offset 10, -12
  43              		.cfi_offset 11, -8
  44              		.cfi_offset 14, -4
  45 0004 B7B0     		sub	sp, sp, #220
  46              		.cfi_def_cfa_offset 256
  47 0006 9846     		mov	r8, r3
   5:.\Astarpathfinding.c ****     u = 15;
  48              		.loc 1 5 0
  49 0008 0F24     		movs	r4, #15
  50 000a A14B     		ldr	r3, .L44
  51              	.LVL1:
  52 000c 1C60     		str	r4, [r3]
ARM GAS  C:\Users\bwil410\AppData\Local\Temp\cc206nDe.s 			page 2


   6:.\Astarpathfinding.c ****     z = 19;
  53              		.loc 1 6 0
  54 000e 1324     		movs	r4, #19
  55 0010 A04B     		ldr	r3, .L44+4
  56 0012 1C60     		str	r4, [r3]
  57              	.LVL2:
   7:.\Astarpathfinding.c ****     int y;
   8:.\Astarpathfinding.c ****     int x;
   9:.\Astarpathfinding.c ****     for( y=0; y < u; y++){
  58              		.loc 1 9 0
  59 0014 4FF0000C 		mov	ip, #0
  60 0018 1AE0     		b	.L2
  61              	.LVL3:
  62              	.L3:
  10:.\Astarpathfinding.c ****         for(x = 0; x < z; x++){
  11:.\Astarpathfinding.c ****             closedList[y][x].x = 0;
  63              		.loc 1 11 0 discriminator 3
  64 001a 9F4B     		ldr	r3, .L44+8
  65 001c 06EBC605 		add	r5, r6, r6, lsl #3
  66 0020 4FF42B74 		mov	r4, #684
  67 0024 04FB0CF4 		mul	r4, r4, ip
  68 0028 04EB8505 		add	r5, r4, r5, lsl #2
  69 002c 5C19     		adds	r4, r3, r5
  70 002e 0027     		movs	r7, #0
  71 0030 5F51     		str	r7, [r3, r5]
  12:.\Astarpathfinding.c ****             closedList[y][x].y = 0;
  72              		.loc 1 12 0 discriminator 3
  73 0032 6760     		str	r7, [r4, #4]
  13:.\Astarpathfinding.c ****             closedList[y][x].f = 999;
  74              		.loc 1 13 0 discriminator 3
  75 0034 40F2E735 		movw	r5, #999
  76 0038 A560     		str	r5, [r4, #8]
  14:.\Astarpathfinding.c ****             closedList[y][x].g = 999;
  77              		.loc 1 14 0 discriminator 3
  78 003a E560     		str	r5, [r4, #12]
  15:.\Astarpathfinding.c ****             closedList[y][x].h = 999;
  79              		.loc 1 15 0 discriminator 3
  80 003c 2561     		str	r5, [r4, #16]
  16:.\Astarpathfinding.c ****             closedList[y][x].px = 0;
  81              		.loc 1 16 0 discriminator 3
  82 003e 6761     		str	r7, [r4, #20]
  17:.\Astarpathfinding.c ****             closedList[y][x].py = 0;
  83              		.loc 1 17 0 discriminator 3
  84 0040 A761     		str	r7, [r4, #24]
  10:.\Astarpathfinding.c ****             closedList[y][x].x = 0;
  85              		.loc 1 10 0 discriminator 3
  86 0042 0136     		adds	r6, r6, #1
  87              	.LVL4:
  88 0044 00E0     		b	.L4
  89              	.LVL5:
  90              	.L38:
  91 0046 0026     		movs	r6, #0
  92              	.L4:
  93              	.LVL6:
  10:.\Astarpathfinding.c ****             closedList[y][x].x = 0;
  94              		.loc 1 10 0 is_stmt 0 discriminator 1
  95 0048 122E     		cmp	r6, #18
ARM GAS  C:\Users\bwil410\AppData\Local\Temp\cc206nDe.s 			page 3


  96 004a E6DD     		ble	.L3
   9:.\Astarpathfinding.c ****         for(x = 0; x < z; x++){
  97              		.loc 1 9 0 is_stmt 1 discriminator 2
  98 004c 0CF1010C 		add	ip, ip, #1
  99              	.LVL7:
 100              	.L2:
   9:.\Astarpathfinding.c ****         for(x = 0; x < z; x++){
 101              		.loc 1 9 0 is_stmt 0 discriminator 1
 102 0050 BCF10E0F 		cmp	ip, #14
 103 0054 F7DD     		ble	.L38
 104 0056 26E0     		b	.L5
 105              	.L9:
  18:.\Astarpathfinding.c ****         }
  19:.\Astarpathfinding.c ****     }
  20:.\Astarpathfinding.c **** 
  21:.\Astarpathfinding.c ****     while (valid == 0){
  22:.\Astarpathfinding.c ****         startloc.x = start_x;
 106              		.loc 1 22 0 is_stmt 1
 107 0058 904B     		ldr	r3, .L44+12
 108 005a 1860     		str	r0, [r3]
  23:.\Astarpathfinding.c ****         startloc.y = start_y;
 109              		.loc 1 23 0
 110 005c 5960     		str	r1, [r3, #4]
  24:.\Astarpathfinding.c ****         startloc.f = 0;
 111              		.loc 1 24 0
 112 005e 0024     		movs	r4, #0
 113 0060 9C60     		str	r4, [r3, #8]
  25:.\Astarpathfinding.c ****         startloc.g = 0;
 114              		.loc 1 25 0
 115 0062 DC60     		str	r4, [r3, #12]
  26:.\Astarpathfinding.c ****         startloc.h = 0;
 116              		.loc 1 26 0
 117 0064 1C61     		str	r4, [r3, #16]
  27:.\Astarpathfinding.c ****         startloc.px = 0;
 118              		.loc 1 27 0
 119 0066 5C61     		str	r4, [r3, #20]
  28:.\Astarpathfinding.c ****         startloc.py = 0;
 120              		.loc 1 28 0
 121 0068 9C61     		str	r4, [r3, #24]
  29:.\Astarpathfinding.c **** 
  30:.\Astarpathfinding.c ****         endloc.x = end_x;
 122              		.loc 1 30 0
 123 006a 8D4B     		ldr	r3, .L44+16
 124 006c 1A60     		str	r2, [r3]
  31:.\Astarpathfinding.c ****         endloc.y = end_y;
 125              		.loc 1 31 0
 126 006e C3F80480 		str	r8, [r3, #4]
  32:.\Astarpathfinding.c **** 
  33:.\Astarpathfinding.c ****         if(map[startloc.y][startloc.x] == 1 || map[endloc.y][endloc.x] == 1){
 127              		.loc 1 33 0
 128 0072 01EBC103 		add	r3, r1, r1, lsl #3
 129 0076 01EB4303 		add	r3, r1, r3, lsl #1
 130 007a 0344     		add	r3, r3, r0
 131 007c 894C     		ldr	r4, .L44+20
 132 007e 54F82330 		ldr	r3, [r4, r3, lsl #2]
 133 0082 012B     		cmp	r3, #1
 134 0084 08D0     		beq	.L6
ARM GAS  C:\Users\bwil410\AppData\Local\Temp\cc206nDe.s 			page 4


 135              		.loc 1 33 0 is_stmt 0 discriminator 1
 136 0086 08EBC803 		add	r3, r8, r8, lsl #3
 137 008a 08EB4303 		add	r3, r8, r3, lsl #1
 138 008e 1344     		add	r3, r3, r2
 139 0090 54F82330 		ldr	r3, [r4, r3, lsl #2]
 140 0094 012B     		cmp	r3, #1
 141 0096 03D1     		bne	.L7
 142              	.L6:
  34:.\Astarpathfinding.c ****             valid = 0;
 143              		.loc 1 34 0 is_stmt 1
 144 0098 0024     		movs	r4, #0
 145 009a 834B     		ldr	r3, .L44+24
 146 009c 1C60     		str	r4, [r3]
 147 009e 02E0     		b	.L5
 148              	.L7:
  35:.\Astarpathfinding.c ****         } else {
  36:.\Astarpathfinding.c ****             valid = 1;
 149              		.loc 1 36 0
 150 00a0 0124     		movs	r4, #1
 151 00a2 814B     		ldr	r3, .L44+24
 152 00a4 1C60     		str	r4, [r3]
 153              	.L5:
  21:.\Astarpathfinding.c ****         startloc.x = start_x;
 154              		.loc 1 21 0
 155 00a6 804B     		ldr	r3, .L44+24
 156 00a8 1B68     		ldr	r3, [r3]
 157 00aa 002B     		cmp	r3, #0
 158 00ac D4D0     		beq	.L9
  37:.\Astarpathfinding.c ****         }
  38:.\Astarpathfinding.c ****     }
  39:.\Astarpathfinding.c ****     openList[0] = startloc; 
 159              		.loc 1 39 0
 160 00ae 7F4C     		ldr	r4, .L44+28
 161 00b0 7A4D     		ldr	r5, .L44+12
 162 00b2 0FCD     		ldmia	r5!, {r0, r1, r2, r3}
 163              	.LVL8:
 164 00b4 0FC4     		stmia	r4!, {r0, r1, r2, r3}
 165 00b6 0FCD     		ldmia	r5!, {r0, r1, r2, r3}
 166 00b8 0FC4     		stmia	r4!, {r0, r1, r2, r3}
 167 00ba 2B68     		ldr	r3, [r5]
 168 00bc 2360     		str	r3, [r4]
 169              	.LVL9:
  40:.\Astarpathfinding.c ****     int founddest = 0;
 170              		.loc 1 40 0
 171 00be 4FF0000A 		mov	r10, #0
  41:.\Astarpathfinding.c ****     int a;
  42:.\Astarpathfinding.c ****     int i;
  43:.\Astarpathfinding.c ****     while (openList[0].x != -1 && founddest == 0){
 172              		.loc 1 43 0
 173 00c2 D6E1     		b	.L10
 174              	.LVL10:
 175              	.L13:
 176              	.LBB2:
  44:.\Astarpathfinding.c ****         a = 1;
  45:.\Astarpathfinding.c ****         for(i = 0;i<15*19;i++){
  46:.\Astarpathfinding.c ****             if(openList[i].f < openList[a].f){
 177              		.loc 1 46 0
ARM GAS  C:\Users\bwil410\AppData\Local\Temp\cc206nDe.s 			page 5


 178 00c4 794A     		ldr	r2, .L44+28
 179 00c6 03EBC301 		add	r1, r3, r3, lsl #3
 180 00ca 02EB8101 		add	r1, r2, r1, lsl #2
 181 00ce 8968     		ldr	r1, [r1, #8]
 182 00d0 04EBC400 		add	r0, r4, r4, lsl #3
 183 00d4 02EB8002 		add	r2, r2, r0, lsl #2
 184 00d8 9268     		ldr	r2, [r2, #8]
 185 00da 9142     		cmp	r1, r2
 186 00dc 08DB     		blt	.L39
  47:.\Astarpathfinding.c ****                 a =i;
  48:.\Astarpathfinding.c ****             } else if(openList[i].x == -1){
 187              		.loc 1 48 0
 188 00de 03EBC302 		add	r2, r3, r3, lsl #3
 189 00e2 7249     		ldr	r1, .L44+28
 190 00e4 51F82220 		ldr	r2, [r1, r2, lsl #2]
 191 00e8 B2F1FF3F 		cmp	r2, #-1
 192 00ec 01D1     		bne	.L11
 193 00ee 07E0     		b	.L12
 194              	.L39:
  47:.\Astarpathfinding.c ****                 a =i;
 195              		.loc 1 47 0
 196 00f0 1C46     		mov	r4, r3
 197              	.LVL11:
 198              	.L11:
  45:.\Astarpathfinding.c ****             if(openList[i].f < openList[a].f){
 199              		.loc 1 45 0 discriminator 2
 200 00f2 0133     		adds	r3, r3, #1
 201              	.LVL12:
 202 00f4 01E0     		b	.L35
 203              	.LVL13:
 204              	.L42:
 205              	.LBE2:
 206 00f6 0023     		movs	r3, #0
 207 00f8 0124     		movs	r4, #1
 208              	.L35:
 209              	.LVL14:
 210              	.LBB3:
  45:.\Astarpathfinding.c ****             if(openList[i].f < openList[a].f){
 211              		.loc 1 45 0 is_stmt 0 discriminator 1
 212 00fa B3F58E7F 		cmp	r3, #284
 213 00fe E1DD     		ble	.L13
 214              	.L12:
  49:.\Astarpathfinding.c ****                 break;
  50:.\Astarpathfinding.c ****             }
  51:.\Astarpathfinding.c ****         }
  52:.\Astarpathfinding.c **** 
  53:.\Astarpathfinding.c ****         node_t q = openList[a];
 215              		.loc 1 53 0 is_stmt 1
 216 0100 DFF8A8E1 		ldr	lr, .L44+28
 217 0104 4FEAC40C 		lsl	ip, r4, #3
 218 0108 0CEB0405 		add	r5, ip, r4
 219 010c 09AE     		add	r6, sp, #36
 220 010e 0EEB8505 		add	r5, lr, r5, lsl #2
 221 0112 0FCD     		ldmia	r5!, {r0, r1, r2, r3}
 222              	.LVL15:
 223 0114 0FC6     		stmia	r6!, {r0, r1, r2, r3}
 224 0116 0FCD     		ldmia	r5!, {r0, r1, r2, r3}
ARM GAS  C:\Users\bwil410\AppData\Local\Temp\cc206nDe.s 			page 6


 225 0118 0FC6     		stmia	r6!, {r0, r1, r2, r3}
 226 011a 2F68     		ldr	r7, [r5]
 227 011c 3760     		str	r7, [r6]
  54:.\Astarpathfinding.c ****         openList[a].x = -1;
 228              		.loc 1 54 0
 229 011e 6444     		add	r4, r4, ip
 230              	.LVL16:
 231 0120 4FF0FF33 		mov	r3, #-1
 232 0124 4EF82430 		str	r3, [lr, r4, lsl #2]
  55:.\Astarpathfinding.c **** 
  56:.\Astarpathfinding.c ****         up = q;
 233              		.loc 1 56 0
 234 0128 DFF884C1 		ldr	ip, .L44+32
 235 012c 6446     		mov	r4, ip
 236 012e 09AD     		add	r5, sp, #36
 237 0130 0FCD     		ldmia	r5!, {r0, r1, r2, r3}
 238 0132 0FC4     		stmia	r4!, {r0, r1, r2, r3}
 239 0134 0FCD     		ldmia	r5!, {r0, r1, r2, r3}
 240 0136 0FC4     		stmia	r4!, {r0, r1, r2, r3}
 241 0138 2760     		str	r7, [r4]
  57:.\Astarpathfinding.c ****         up.y = up.y -1;
 242              		.loc 1 57 0
 243 013a DCF80460 		ldr	r6, [ip, #4]
 244 013e 013E     		subs	r6, r6, #1
 245 0140 CCF80460 		str	r6, [ip, #4]
  58:.\Astarpathfinding.c ****         up.f = 999;
 246              		.loc 1 58 0
 247 0144 40F2E73E 		movw	lr, #999
 248 0148 CCF808E0 		str	lr, [ip, #8]
  59:.\Astarpathfinding.c ****         down = q;
 249              		.loc 1 59 0
 250 014c DFF86481 		ldr	r8, .L44+36
 251 0150 4446     		mov	r4, r8
 252 0152 09AD     		add	r5, sp, #36
 253 0154 0FCD     		ldmia	r5!, {r0, r1, r2, r3}
 254 0156 0FC4     		stmia	r4!, {r0, r1, r2, r3}
 255 0158 0FCD     		ldmia	r5!, {r0, r1, r2, r3}
 256 015a 0FC4     		stmia	r4!, {r0, r1, r2, r3}
 257 015c 2760     		str	r7, [r4]
  60:.\Astarpathfinding.c ****         down.y = down.y +1;
 258              		.loc 1 60 0
 259 015e D8F80430 		ldr	r3, [r8, #4]
 260 0162 03F1010C 		add	ip, r3, #1
 261 0166 C8F804C0 		str	ip, [r8, #4]
  61:.\Astarpathfinding.c ****         down.f = 999;
 262              		.loc 1 61 0
 263 016a C8F808E0 		str	lr, [r8, #8]
  62:.\Astarpathfinding.c ****         left = q;
 264              		.loc 1 62 0
 265 016e DFF84891 		ldr	r9, .L44+40
 266 0172 4C46     		mov	r4, r9
 267 0174 09AD     		add	r5, sp, #36
 268 0176 0FCD     		ldmia	r5!, {r0, r1, r2, r3}
 269 0178 0FC4     		stmia	r4!, {r0, r1, r2, r3}
 270 017a 0FCD     		ldmia	r5!, {r0, r1, r2, r3}
 271 017c 0FC4     		stmia	r4!, {r0, r1, r2, r3}
 272 017e 2760     		str	r7, [r4]
ARM GAS  C:\Users\bwil410\AppData\Local\Temp\cc206nDe.s 			page 7


  63:.\Astarpathfinding.c ****         left.x = left.x -1;
 273              		.loc 1 63 0
 274 0180 D9F80030 		ldr	r3, [r9]
 275 0184 03F1FF38 		add	r8, r3, #-1
 276 0188 C9F80080 		str	r8, [r9]
  64:.\Astarpathfinding.c ****         left.f = 999;
 277              		.loc 1 64 0
 278 018c C9F808E0 		str	lr, [r9, #8]
  65:.\Astarpathfinding.c ****         right = q;
 279              		.loc 1 65 0
 280 0190 DFF82891 		ldr	r9, .L44+44
 281 0194 4C46     		mov	r4, r9
 282 0196 09AD     		add	r5, sp, #36
 283 0198 0FCD     		ldmia	r5!, {r0, r1, r2, r3}
 284 019a 0FC4     		stmia	r4!, {r0, r1, r2, r3}
 285 019c 0FCD     		ldmia	r5!, {r0, r1, r2, r3}
 286 019e 0FC4     		stmia	r4!, {r0, r1, r2, r3}
 287 01a0 2760     		str	r7, [r4]
  66:.\Astarpathfinding.c ****         right.x = right.x +1;
 288              		.loc 1 66 0
 289 01a2 D9F80030 		ldr	r3, [r9]
 290 01a6 0133     		adds	r3, r3, #1
 291 01a8 C9F80030 		str	r3, [r9]
  67:.\Astarpathfinding.c ****         right.f = 999;
 292              		.loc 1 67 0
 293 01ac C9F808E0 		str	lr, [r9, #8]
  68:.\Astarpathfinding.c **** 
  69:.\Astarpathfinding.c ****         if(up.y<0||map[up.y][up.x] == 1){
 294              		.loc 1 69 0
 295 01b0 002E     		cmp	r6, #0
 296 01b2 0BDB     		blt	.L14
 297              		.loc 1 69 0 is_stmt 0 discriminator 1
 298 01b4 3E4A     		ldr	r2, .L44+32
 299 01b6 1268     		ldr	r2, [r2]
 300 01b8 06EBC601 		add	r1, r6, r6, lsl #3
 301 01bc 06EB4106 		add	r6, r6, r1, lsl #1
 302 01c0 1644     		add	r6, r6, r2
 303 01c2 384A     		ldr	r2, .L44+20
 304 01c4 52F82620 		ldr	r2, [r2, r6, lsl #2]
 305 01c8 012A     		cmp	r2, #1
 306 01ca 03D1     		bne	.L15
 307              	.L14:
  70:.\Astarpathfinding.c ****             up.x = -1; 
 308              		.loc 1 70 0 is_stmt 1
 309 01cc 4FF0FF31 		mov	r1, #-1
 310 01d0 374A     		ldr	r2, .L44+32
 311 01d2 1160     		str	r1, [r2]
 312              	.L15:
  71:.\Astarpathfinding.c ****         }
  72:.\Astarpathfinding.c ****         if(down.y>=u||map[down.y][down.x] == 1){
 313              		.loc 1 72 0
 314 01d4 2E4A     		ldr	r2, .L44
 315 01d6 1268     		ldr	r2, [r2]
 316 01d8 9445     		cmp	ip, r2
 317 01da 0BDA     		bge	.L16
 318              		.loc 1 72 0 is_stmt 0 discriminator 1
 319 01dc 354A     		ldr	r2, .L44+36
ARM GAS  C:\Users\bwil410\AppData\Local\Temp\cc206nDe.s 			page 8


 320 01de 1268     		ldr	r2, [r2]
 321 01e0 0CEBCC01 		add	r1, ip, ip, lsl #3
 322 01e4 0CEB410C 		add	ip, ip, r1, lsl #1
 323 01e8 9444     		add	ip, ip, r2
 324 01ea 2E4A     		ldr	r2, .L44+20
 325 01ec 52F82C20 		ldr	r2, [r2, ip, lsl #2]
 326 01f0 012A     		cmp	r2, #1
 327 01f2 03D1     		bne	.L17
 328              	.L16:
  73:.\Astarpathfinding.c ****         down.x = -1; 
 329              		.loc 1 73 0 is_stmt 1
 330 01f4 4FF0FF31 		mov	r1, #-1
 331 01f8 2E4A     		ldr	r2, .L44+36
 332 01fa 1160     		str	r1, [r2]
 333              	.L17:
  74:.\Astarpathfinding.c ****         }
  75:.\Astarpathfinding.c ****         if(left.x<0||map[left.y][left.x] == 1){
 334              		.loc 1 75 0
 335 01fc B8F1000F 		cmp	r8, #0
 336 0200 0BDB     		blt	.L18
 337              		.loc 1 75 0 is_stmt 0 discriminator 1
 338 0202 2D4A     		ldr	r2, .L44+40
 339 0204 5268     		ldr	r2, [r2, #4]
 340 0206 02EBC201 		add	r1, r2, r2, lsl #3
 341 020a 02EB4102 		add	r2, r2, r1, lsl #1
 342 020e 9044     		add	r8, r8, r2
 343 0210 244A     		ldr	r2, .L44+20
 344 0212 52F82820 		ldr	r2, [r2, r8, lsl #2]
 345 0216 012A     		cmp	r2, #1
 346 0218 03D1     		bne	.L19
 347              	.L18:
  76:.\Astarpathfinding.c ****         left.x = -1; 
 348              		.loc 1 76 0 is_stmt 1
 349 021a 4FF0FF31 		mov	r1, #-1
 350 021e 264A     		ldr	r2, .L44+40
 351 0220 1160     		str	r1, [r2]
 352              	.L19:
  77:.\Astarpathfinding.c ****         }
  78:.\Astarpathfinding.c ****         if(right.y>=z||map[right.y][right.x] == 1){
 353              		.loc 1 78 0
 354 0222 264A     		ldr	r2, .L44+44
 355 0224 5768     		ldr	r7, [r2, #4]
 356 0226 1B4A     		ldr	r2, .L44+4
 357 0228 1268     		ldr	r2, [r2]
 358 022a 9742     		cmp	r7, r2
 359 022c 09DA     		bge	.L20
 360              		.loc 1 78 0 is_stmt 0 discriminator 1
 361 022e 07EBC702 		add	r2, r7, r7, lsl #3
 362 0232 07EB4202 		add	r2, r7, r2, lsl #1
 363 0236 1344     		add	r3, r3, r2
 364 0238 1A4A     		ldr	r2, .L44+20
 365 023a 52F82330 		ldr	r3, [r2, r3, lsl #2]
 366 023e 012B     		cmp	r3, #1
 367 0240 03D1     		bne	.L21
 368              	.L20:
  79:.\Astarpathfinding.c ****         right.x = -1; 
 369              		.loc 1 79 0 is_stmt 1
ARM GAS  C:\Users\bwil410\AppData\Local\Temp\cc206nDe.s 			page 9


 370 0242 4FF0FF32 		mov	r2, #-1
 371 0246 1D4B     		ldr	r3, .L44+44
 372 0248 1A60     		str	r2, [r3]
 373              	.L21:
  80:.\Astarpathfinding.c ****         }
  81:.\Astarpathfinding.c **** 
  82:.\Astarpathfinding.c ****         node_t successors[4] = {up,down,left,right};
 374              		.loc 1 82 0
 375 024a 12AC     		add	r4, sp, #72
 376 024c 184D     		ldr	r5, .L44+32
 377 024e 0FCD     		ldmia	r5!, {r0, r1, r2, r3}
 378 0250 0FC4     		stmia	r4!, {r0, r1, r2, r3}
 379 0252 0FCD     		ldmia	r5!, {r0, r1, r2, r3}
 380 0254 0FC4     		stmia	r4!, {r0, r1, r2, r3}
 381 0256 2B68     		ldr	r3, [r5]
 382 0258 2360     		str	r3, [r4]
 383 025a 1BAC     		add	r4, sp, #108
 384 025c 154D     		ldr	r5, .L44+36
 385 025e 0FCD     		ldmia	r5!, {r0, r1, r2, r3}
 386 0260 0FC4     		stmia	r4!, {r0, r1, r2, r3}
 387 0262 0FCD     		ldmia	r5!, {r0, r1, r2, r3}
 388 0264 0FC4     		stmia	r4!, {r0, r1, r2, r3}
 389 0266 2B68     		ldr	r3, [r5]
 390 0268 2360     		str	r3, [r4]
 391 026a 24AC     		add	r4, sp, #144
 392 026c 124D     		ldr	r5, .L44+40
 393 026e 0FCD     		ldmia	r5!, {r0, r1, r2, r3}
 394 0270 0FC4     		stmia	r4!, {r0, r1, r2, r3}
 395 0272 0FCD     		ldmia	r5!, {r0, r1, r2, r3}
 396 0274 0FC4     		stmia	r4!, {r0, r1, r2, r3}
 397 0276 2B68     		ldr	r3, [r5]
 398 0278 2360     		str	r3, [r4]
 399 027a 2DAC     		add	r4, sp, #180
 400 027c 0F4D     		ldr	r5, .L44+44
 401 027e 0FCD     		ldmia	r5!, {r0, r1, r2, r3}
 402 0280 0FC4     		stmia	r4!, {r0, r1, r2, r3}
 403 0282 0FCD     		ldmia	r5!, {r0, r1, r2, r3}
 404 0284 0FC4     		stmia	r4!, {r0, r1, r2, r3}
 405 0286 2B68     		ldr	r3, [r5]
 406 0288 2360     		str	r3, [r4]
 407              	.LVL17:
  83:.\Astarpathfinding.c ****         int found = 0;
  84:.\Astarpathfinding.c ****         int i;
  85:.\Astarpathfinding.c ****         int b;
  86:.\Astarpathfinding.c ****         for (i=0; i<4; i++){
 408              		.loc 1 86 0
 409 028a 0025     		movs	r5, #0
  83:.\Astarpathfinding.c ****         int found = 0;
 410              		.loc 1 83 0
 411 028c A846     		mov	r8, r5
 412              		.loc 1 86 0
 413 028e DAE0     		b	.L22
 414              	.L45:
 415              		.align	2
 416              	.L44:
 417 0290 00000000 		.word	u
 418 0294 00000000 		.word	z
ARM GAS  C:\Users\bwil410\AppData\Local\Temp\cc206nDe.s 			page 10


 419 0298 00000000 		.word	closedList
 420 029c 00000000 		.word	startloc
 421 02a0 00000000 		.word	endloc
 422 02a4 00000000 		.word	.LANCHOR0
 423 02a8 00000000 		.word	.LANCHOR1
 424 02ac 00000000 		.word	openList
 425 02b0 00000000 		.word	up
 426 02b4 00000000 		.word	down
 427 02b8 00000000 		.word	left
 428 02bc 00000000 		.word	right
 429              	.LVL18:
 430              	.L33:
  87:.\Astarpathfinding.c ****             if(successors[i].x == -1){
 431              		.loc 1 87 0
 432 02c0 05EBC503 		add	r3, r5, r5, lsl #3
 433 02c4 36AA     		add	r2, sp, #216
 434 02c6 02EB8303 		add	r3, r2, r3, lsl #2
 435 02ca 53F8904C 		ldr	r4, [r3, #-144]
 436 02ce B4F1FF3F 		cmp	r4, #-1
 437 02d2 00F0B780 		beq	.L23
  88:.\Astarpathfinding.c ****             }else{
  89:.\Astarpathfinding.c ****                 successors[i].px = q.x;
 438              		.loc 1 89 0
 439 02d6 099A     		ldr	r2, [sp, #36]
 440 02d8 05EBC503 		add	r3, r5, r5, lsl #3
 441 02dc 36A9     		add	r1, sp, #216
 442 02de 01EB8303 		add	r3, r1, r3, lsl #2
 443 02e2 43F87C2C 		str	r2, [r3, #-124]
  90:.\Astarpathfinding.c ****                 successors[i].py = q.y;
 444              		.loc 1 90 0
 445 02e6 43F8787C 		str	r7, [r3, #-120]
  91:.\Astarpathfinding.c **** 
  92:.\Astarpathfinding.c ****                 if(successors[i].x == endloc.x && successors[i].y == endloc.y){
 446              		.loc 1 92 0
 447 02ea 8C4B     		ldr	r3, .L46
 448 02ec 1968     		ldr	r1, [r3]
 449 02ee 8C42     		cmp	r4, r1
 450 02f0 10D1     		bne	.L24
 451              		.loc 1 92 0 is_stmt 0 discriminator 1
 452 02f2 05EBC503 		add	r3, r5, r5, lsl #3
 453 02f6 36A8     		add	r0, sp, #216
 454 02f8 00EB8303 		add	r3, r0, r3, lsl #2
 455 02fc 53F88C0C 		ldr	r0, [r3, #-140]
 456 0300 864B     		ldr	r3, .L46
 457 0302 5B68     		ldr	r3, [r3, #4]
 458 0304 9842     		cmp	r0, r3
 459 0306 05D1     		bne	.L24
  93:.\Astarpathfinding.c ****                     endloc.px=q.x;
 460              		.loc 1 93 0 is_stmt 1
 461 0308 844B     		ldr	r3, .L46
 462 030a 5A61     		str	r2, [r3, #20]
  94:.\Astarpathfinding.c ****                     endloc.py =q.y;
 463              		.loc 1 94 0
 464 030c 9F61     		str	r7, [r3, #24]
 465              	.LVL19:
  95:.\Astarpathfinding.c ****                     founddest = 1;
 466              		.loc 1 95 0
ARM GAS  C:\Users\bwil410\AppData\Local\Temp\cc206nDe.s 			page 11


 467 030e 4FF0010A 		mov	r10, #1
  96:.\Astarpathfinding.c ****                     break;
 468              		.loc 1 96 0
 469 0312 9BE0     		b	.L25
 470              	.LVL20:
 471              	.L24:
  97:.\Astarpathfinding.c ****                 } else if (closedList[successors[i].y][successors[i].x].f == 999){
 472              		.loc 1 97 0
 473 0314 05EBC503 		add	r3, r5, r5, lsl #3
 474 0318 36AA     		add	r2, sp, #216
 475 031a 02EB8303 		add	r3, r2, r3, lsl #2
 476 031e 53F88C6C 		ldr	r6, [r3, #-140]
 477 0322 04EBC403 		add	r3, r4, r4, lsl #3
 478 0326 4FF42B72 		mov	r2, #684
 479 032a 02FB06F2 		mul	r2, r2, r6
 480 032e 02EB8303 		add	r3, r2, r3, lsl #2
 481 0332 7B4A     		ldr	r2, .L46+4
 482 0334 1344     		add	r3, r3, r2
 483 0336 9A68     		ldr	r2, [r3, #8]
 484 0338 40F2E733 		movw	r3, #999
 485 033c 9A42     		cmp	r2, r3
 486 033e 5BD1     		bne	.L26
  98:.\Astarpathfinding.c ****                     successors[i].g = q.g+1;
 487              		.loc 1 98 0
 488 0340 0C9B     		ldr	r3, [sp, #48]
 489 0342 0133     		adds	r3, r3, #1
 490 0344 05EBC50B 		add	fp, r5, r5, lsl #3
 491 0348 36AA     		add	r2, sp, #216
 492 034a 02EB8B0B 		add	fp, r2, fp, lsl #2
 493 034e 0793     		str	r3, [sp, #28]
 494 0350 4BF8843C 		str	r3, [fp, #-132]
  99:.\Astarpathfinding.c ****                     successors[i].h = (int) sqrt( ((successors[i].x-endloc.x)^2 + (successors[i].y 
 495              		.loc 1 99 0
 496 0354 611A     		subs	r1, r4, r1
 497 0356 714B     		ldr	r3, .L46
 498 0358 5B68     		ldr	r3, [r3, #4]
 499 035a C3EB0609 		rsb	r9, r3, r6
 500 035e 09F10209 		add	r9, r9, #2
 501 0362 81EA0901 		eor	r1, r1, r9
 502 0366 81F00209 		eor	r9, r1, #2
 503 036a 4846     		mov	r0, r9
 504 036c FFF7FEFF 		bl	__aeabi_i2d
 505              	.LVL21:
 506 0370 FFF7FEFF 		bl	sqrt
 507              	.LVL22:
 508 0374 FFF7FEFF 		bl	__aeabi_d2iz
 509              	.LVL23:
 510 0378 4BF8800C 		str	r0, [fp, #-128]
 100:.\Astarpathfinding.c ****                     successors[i].f = successors[i].g+successors[i].h;
 511              		.loc 1 100 0
 512 037c 079B     		ldr	r3, [sp, #28]
 513 037e 03EB000C 		add	ip, r3, r0
 514 0382 4BF888CC 		str	ip, [fp, #-136]
 515              	.LVL24:
 101:.\Astarpathfinding.c ****                     for (b = 0;b<15*19;b++){
 516              		.loc 1 101 0
 517 0386 4FF0000E 		mov	lr, #0
ARM GAS  C:\Users\bwil410\AppData\Local\Temp\cc206nDe.s 			page 12


 518 038a 32E0     		b	.L27
 519              	.LVL25:
 520              	.L29:
 102:.\Astarpathfinding.c **** 
 103:.\Astarpathfinding.c ****                         if((openList[b].x == successors[i].x) && (openList[b].y == successors[i].y)
 521              		.loc 1 103 0
 522 038c 0EEBCE03 		add	r3, lr, lr, lsl #3
 523 0390 644A     		ldr	r2, .L46+8
 524 0392 52F82330 		ldr	r3, [r2, r3, lsl #2]
 525 0396 9C42     		cmp	r4, r3
 526 0398 29D1     		bne	.L28
 527              		.loc 1 103 0 is_stmt 0 discriminator 1
 528 039a 0EEBCE03 		add	r3, lr, lr, lsl #3
 529 039e 02EB8303 		add	r3, r2, r3, lsl #2
 530 03a2 5B68     		ldr	r3, [r3, #4]
 531 03a4 9E42     		cmp	r6, r3
 532 03a6 22D1     		bne	.L28
 533              	.LVL26:
 104:.\Astarpathfinding.c ****                             found = 1;
 105:.\Astarpathfinding.c ****                             if(openList[b].f>successors[i].f){
 534              		.loc 1 105 0 is_stmt 1
 535 03a8 0EEBCE03 		add	r3, lr, lr, lsl #3
 536 03ac 02EB8303 		add	r3, r2, r3, lsl #2
 537 03b0 9B68     		ldr	r3, [r3, #8]
 538 03b2 9C45     		cmp	ip, r3
 539 03b4 19DA     		bge	.L40
 106:.\Astarpathfinding.c ****                                 openList[b] = successors[i];
 540              		.loc 1 106 0
 541 03b6 0EEBCE09 		add	r9, lr, lr, lsl #3
 542 03ba 05EBC508 		add	r8, r5, r5, lsl #3
 543 03be 36AB     		add	r3, sp, #216
 544 03c0 03EB8808 		add	r8, r3, r8, lsl #2
 545 03c4 02EB8909 		add	r9, r2, r9, lsl #2
 546 03c8 A8F19008 		sub	r8, r8, #144
 547 03cc B8E80F00 		ldmia	r8!, {r0, r1, r2, r3}
 548 03d0 A9E80F00 		stmia	r9!, {r0, r1, r2, r3}
 549 03d4 B8E80F00 		ldmia	r8!, {r0, r1, r2, r3}
 550 03d8 A9E80F00 		stmia	r9!, {r0, r1, r2, r3}
 551 03dc D8F80030 		ldr	r3, [r8]
 552 03e0 C9F80030 		str	r3, [r9]
 104:.\Astarpathfinding.c ****                             found = 1;
 553              		.loc 1 104 0
 554 03e4 4FF00108 		mov	r8, #1
 555 03e8 01E0     		b	.L28
 556              	.L40:
 557 03ea 4FF00108 		mov	r8, #1
 558              	.LVL27:
 559              	.L28:
 101:.\Astarpathfinding.c **** 
 560              		.loc 1 101 0 discriminator 2
 561 03ee 0EF1010E 		add	lr, lr, #1
 562              	.LVL28:
 563              	.L27:
 101:.\Astarpathfinding.c **** 
 564              		.loc 1 101 0 is_stmt 0 discriminator 1
 565 03f2 BEF58E7F 		cmp	lr, #284
 566 03f6 C9DD     		ble	.L29
ARM GAS  C:\Users\bwil410\AppData\Local\Temp\cc206nDe.s 			page 13


 567              	.LVL29:
 568              	.L26:
 107:.\Astarpathfinding.c ****                             }
 108:.\Astarpathfinding.c ****                         }
 109:.\Astarpathfinding.c ****                     }
 110:.\Astarpathfinding.c ****                 }
 111:.\Astarpathfinding.c **** 
 112:.\Astarpathfinding.c ****                 if (found == 0 && founddest != 1){
 569              		.loc 1 112 0 is_stmt 1
 570 03f8 B8F1000F 		cmp	r8, #0
 571 03fc 22D1     		bne	.L23
 572              		.loc 1 112 0 is_stmt 0 discriminator 1
 573 03fe BAF1000F 		cmp	r10, #0
 574 0402 1BD0     		beq	.L41
 575 0404 1EE0     		b	.L23
 576              	.LVL30:
 577              	.L32:
 113:.\Astarpathfinding.c ****                     for (b = 0;b<15*19;b++){
 114:.\Astarpathfinding.c ****                         if(openList[b].x == -1){
 578              		.loc 1 114 0 is_stmt 1
 579 0406 03EBC302 		add	r2, r3, r3, lsl #3
 580 040a 4649     		ldr	r1, .L46+8
 581 040c 51F82220 		ldr	r2, [r1, r2, lsl #2]
 582 0410 B2F1FF3F 		cmp	r2, #-1
 583 0414 10D1     		bne	.L31
 115:.\Astarpathfinding.c ****                             openList[b] = successors[i];
 584              		.loc 1 115 0
 585 0416 03EBC303 		add	r3, r3, r3, lsl #3
 586              	.LVL31:
 587 041a 05EBC504 		add	r4, r5, r5, lsl #3
 588 041e 36AA     		add	r2, sp, #216
 589 0420 02EB8404 		add	r4, r2, r4, lsl #2
 590 0424 01EB8306 		add	r6, r1, r3, lsl #2
 591 0428 903C     		subs	r4, r4, #144
 592 042a 0FCC     		ldmia	r4!, {r0, r1, r2, r3}
 593 042c 0FC6     		stmia	r6!, {r0, r1, r2, r3}
 594 042e 0FCC     		ldmia	r4!, {r0, r1, r2, r3}
 595 0430 0FC6     		stmia	r6!, {r0, r1, r2, r3}
 596 0432 2368     		ldr	r3, [r4]
 597 0434 3360     		str	r3, [r6]
 116:.\Astarpathfinding.c ****                             break;
 598              		.loc 1 116 0
 599 0436 05E0     		b	.L23
 600              	.LVL32:
 601              	.L31:
 113:.\Astarpathfinding.c ****                     for (b = 0;b<15*19;b++){
 602              		.loc 1 113 0 discriminator 2
 603 0438 0133     		adds	r3, r3, #1
 604              	.LVL33:
 605 043a 00E0     		b	.L30
 606              	.LVL34:
 607              	.L41:
 608 043c 0023     		movs	r3, #0
 609              	.L30:
 610              	.LVL35:
 113:.\Astarpathfinding.c ****                     for (b = 0;b<15*19;b++){
 611              		.loc 1 113 0 is_stmt 0 discriminator 1
ARM GAS  C:\Users\bwil410\AppData\Local\Temp\cc206nDe.s 			page 14


 612 043e B3F58E7F 		cmp	r3, #284
 613 0442 E0DD     		ble	.L32
 614              	.LVL36:
 615              	.L23:
  86:.\Astarpathfinding.c ****             if(successors[i].x == -1){
 616              		.loc 1 86 0 is_stmt 1 discriminator 2
 617 0444 0135     		adds	r5, r5, #1
 618              	.LVL37:
 619              	.L22:
  86:.\Astarpathfinding.c ****             if(successors[i].x == -1){
 620              		.loc 1 86 0 is_stmt 0 discriminator 1
 621 0446 032D     		cmp	r5, #3
 622 0448 7FF73AAF 		ble	.L33
 623              	.LVL38:
 624              	.L25:
 117:.\Astarpathfinding.c ****                         }
 118:.\Astarpathfinding.c ****                     }
 119:.\Astarpathfinding.c ****                 }
 120:.\Astarpathfinding.c ****             }
 121:.\Astarpathfinding.c ****         }
 122:.\Astarpathfinding.c ****         closedList[q.y][q.x] = q;
 625              		.loc 1 122 0 is_stmt 1
 626 044c 36AD     		add	r5, sp, #216
 627              	.LVL39:
 628 044e 55F8B44D 		ldr	r4, [r5, #-180]!
 629 0452 04EBC404 		add	r4, r4, r4, lsl #3
 630 0456 4FF42B73 		mov	r3, #684
 631 045a 03FB07F7 		mul	r7, r3, r7
 632 045e 07EB8407 		add	r7, r7, r4, lsl #2
 633 0462 2F4C     		ldr	r4, .L46+4
 634 0464 3C44     		add	r4, r4, r7
 635 0466 0FCD     		ldmia	r5!, {r0, r1, r2, r3}
 636 0468 0FC4     		stmia	r4!, {r0, r1, r2, r3}
 637 046a 0FCD     		ldmia	r5!, {r0, r1, r2, r3}
 638 046c 0FC4     		stmia	r4!, {r0, r1, r2, r3}
 639 046e 2B68     		ldr	r3, [r5]
 640 0470 2360     		str	r3, [r4]
 641              	.LVL40:
 642              	.L10:
 643              	.LBE3:
  43:.\Astarpathfinding.c ****         a = 1;
 644              		.loc 1 43 0
 645 0472 2C4B     		ldr	r3, .L46+8
 646 0474 1B68     		ldr	r3, [r3]
 647 0476 B3F1FF3F 		cmp	r3, #-1
 648 047a 03D0     		beq	.L34
  43:.\Astarpathfinding.c ****         a = 1;
 649              		.loc 1 43 0 is_stmt 0 discriminator 1
 650 047c BAF1000F 		cmp	r10, #0
 651 0480 3FF439AE 		beq	.L42
 652              	.L34:
 123:.\Astarpathfinding.c ****     }
 124:.\Astarpathfinding.c ****     printcur = endloc;
 653              		.loc 1 124 0 is_stmt 1
 654 0484 284E     		ldr	r6, .L46+12
 655 0486 3446     		mov	r4, r6
 656 0488 244D     		ldr	r5, .L46
ARM GAS  C:\Users\bwil410\AppData\Local\Temp\cc206nDe.s 			page 15


 657 048a 0FCD     		ldmia	r5!, {r0, r1, r2, r3}
 658 048c 0FC4     		stmia	r4!, {r0, r1, r2, r3}
 659 048e 0FCD     		ldmia	r5!, {r0, r1, r2, r3}
 660 0490 0FC4     		stmia	r4!, {r0, r1, r2, r3}
 661 0492 2B68     		ldr	r3, [r5]
 662 0494 2360     		str	r3, [r4]
 125:.\Astarpathfinding.c ****     createlinkedlist(path,printcur);
 663              		.loc 1 125 0
 664 0496 254B     		ldr	r3, .L46+16
 665 0498 1F68     		ldr	r7, [r3]
 666 049a 6C46     		mov	r4, sp
 667 049c 06F10C05 		add	r5, r6, #12
 668 04a0 0FCD     		ldmia	r5!, {r0, r1, r2, r3}
 669 04a2 0FC4     		stmia	r4!, {r0, r1, r2, r3}
 670 04a4 95E80300 		ldmia	r5, {r0, r1}
 671 04a8 84E80300 		stmia	r4, {r0, r1}
 672 04ac 96E80E00 		ldmia	r6, {r1, r2, r3}
 673 04b0 3846     		mov	r0, r7
 674 04b2 FFF7FEFF 		bl	createlinkedlist
 675              	.LVL41:
 126:.\Astarpathfinding.c ****     while (printcur.x != startloc.x || printcur.y != startloc.y){
 676              		.loc 1 126 0
 677 04b6 22E0     		b	.L36
 678              	.L37:
 127:.\Astarpathfinding.c ****         addfirst(path,printcur);
 679              		.loc 1 127 0
 680 04b8 1C4B     		ldr	r3, .L46+16
 681 04ba 1F68     		ldr	r7, [r3]
 682 04bc 1A4C     		ldr	r4, .L46+12
 683 04be 6D46     		mov	r5, sp
 684 04c0 04F10C06 		add	r6, r4, #12
 685 04c4 0FCE     		ldmia	r6!, {r0, r1, r2, r3}
 686 04c6 0FC5     		stmia	r5!, {r0, r1, r2, r3}
 687 04c8 96E80300 		ldmia	r6, {r0, r1}
 688 04cc 85E80300 		stmia	r5, {r0, r1}
 689 04d0 94E80E00 		ldmia	r4, {r1, r2, r3}
 690 04d4 3846     		mov	r0, r7
 691 04d6 FFF7FEFF 		bl	addfirst
 692              	.LVL42:
 128:.\Astarpathfinding.c ****         printcur = closedList[printcur.y][printcur.x];
 693              		.loc 1 128 0
 694 04da 6368     		ldr	r3, [r4, #4]
 695 04dc 2568     		ldr	r5, [r4]
 696 04de 05EBC505 		add	r5, r5, r5, lsl #3
 697 04e2 4FF42B72 		mov	r2, #684
 698 04e6 02FB03F3 		mul	r3, r2, r3
 699 04ea 03EB8503 		add	r3, r3, r5, lsl #2
 700 04ee 0C4D     		ldr	r5, .L46+4
 701 04f0 1D44     		add	r5, r5, r3
 702 04f2 0FCD     		ldmia	r5!, {r0, r1, r2, r3}
 703 04f4 0FC4     		stmia	r4!, {r0, r1, r2, r3}
 704 04f6 0FCD     		ldmia	r5!, {r0, r1, r2, r3}
 705 04f8 0FC4     		stmia	r4!, {r0, r1, r2, r3}
 706 04fa 2B68     		ldr	r3, [r5]
 707 04fc 2360     		str	r3, [r4]
 708              	.L36:
 126:.\Astarpathfinding.c ****     while (printcur.x != startloc.x || printcur.y != startloc.y){
ARM GAS  C:\Users\bwil410\AppData\Local\Temp\cc206nDe.s 			page 16


 709              		.loc 1 126 0
 710 04fe 0A4B     		ldr	r3, .L46+12
 711 0500 1A68     		ldr	r2, [r3]
 712 0502 0B4B     		ldr	r3, .L46+20
 713 0504 1B68     		ldr	r3, [r3]
 714 0506 9A42     		cmp	r2, r3
 715 0508 D6D1     		bne	.L37
 126:.\Astarpathfinding.c ****     while (printcur.x != startloc.x || printcur.y != startloc.y){
 716              		.loc 1 126 0 is_stmt 0 discriminator 1
 717 050a 074B     		ldr	r3, .L46+12
 718 050c 5A68     		ldr	r2, [r3, #4]
 719 050e 084B     		ldr	r3, .L46+20
 720 0510 5B68     		ldr	r3, [r3, #4]
 721 0512 9A42     		cmp	r2, r3
 722 0514 D0D1     		bne	.L37
 129:.\Astarpathfinding.c ****     }
 130:.\Astarpathfinding.c **** 
 131:.\Astarpathfinding.c **** }...
 723              		.loc 1 131 0 is_stmt 1
 724 0516 37B0     		add	sp, sp, #220
 725              		.cfi_def_cfa_offset 36
 726              		@ sp needed
 727 0518 BDE8F08F 		pop	{r4, r5, r6, r7, r8, r9, r10, fp, pc}
 728              	.LVL43:
 729              	.L47:
 730              		.align	2
 731              	.L46:
 732 051c 00000000 		.word	endloc
 733 0520 00000000 		.word	closedList
 734 0524 00000000 		.word	openList
 735 0528 00000000 		.word	printcur
 736 052c 00000000 		.word	path
 737 0530 00000000 		.word	startloc
 738              		.cfi_endproc
 739              	.LFE0:
 740              		.size	Pathfinder, .-Pathfinder
 741              		.comm	z,4,4
 742              		.comm	u,4,4
 743              		.comm	path,4,4
 744              		.comm	printcur,36,4
 745              		.comm	down,36,4
 746              		.comm	right,36,4
 747              		.comm	left,36,4
 748              		.comm	up,36,4
 749              		.comm	endloc,36,4
 750              		.comm	startloc,36,4
 751              		.comm	openList,10260,4
 752              		.comm	closedList,10260,4
 753              		.global	valid
 754              		.global	food_list
 755              		.global	map
 756              		.data
 757              		.align	2
 758              		.set	.LANCHOR0,. + 0
 759              		.type	map, %object
 760              		.size	map, 1140
 761              	map:
ARM GAS  C:\Users\bwil410\AppData\Local\Temp\cc206nDe.s 			page 17


 762 0000 01000000 		.word	1
 763 0004 01000000 		.word	1
 764 0008 01000000 		.word	1
 765 000c 01000000 		.word	1
 766 0010 01000000 		.word	1
 767 0014 01000000 		.word	1
 768 0018 01000000 		.word	1
 769 001c 01000000 		.word	1
 770 0020 01000000 		.word	1
 771 0024 01000000 		.word	1
 772 0028 01000000 		.word	1
 773 002c 01000000 		.word	1
 774 0030 01000000 		.word	1
 775 0034 01000000 		.word	1
 776 0038 01000000 		.word	1
 777 003c 01000000 		.word	1
 778 0040 01000000 		.word	1
 779 0044 01000000 		.word	1
 780 0048 01000000 		.word	1
 781 004c 01000000 		.word	1
 782 0050 00000000 		.word	0
 783 0054 01000000 		.word	1
 784 0058 00000000 		.word	0
 785 005c 00000000 		.word	0
 786 0060 00000000 		.word	0
 787 0064 00000000 		.word	0
 788 0068 00000000 		.word	0
 789 006c 00000000 		.word	0
 790 0070 00000000 		.word	0
 791 0074 00000000 		.word	0
 792 0078 00000000 		.word	0
 793 007c 00000000 		.word	0
 794 0080 00000000 		.word	0
 795 0084 00000000 		.word	0
 796 0088 00000000 		.word	0
 797 008c 00000000 		.word	0
 798 0090 00000000 		.word	0
 799 0094 01000000 		.word	1
 800 0098 01000000 		.word	1
 801 009c 00000000 		.word	0
 802 00a0 01000000 		.word	1
 803 00a4 00000000 		.word	0
 804 00a8 01000000 		.word	1
 805 00ac 00000000 		.word	0
 806 00b0 01000000 		.word	1
 807 00b4 01000000 		.word	1
 808 00b8 01000000 		.word	1
 809 00bc 00000000 		.word	0
 810 00c0 01000000 		.word	1
 811 00c4 01000000 		.word	1
 812 00c8 01000000 		.word	1
 813 00cc 00000000 		.word	0
 814 00d0 01000000 		.word	1
 815 00d4 01000000 		.word	1
 816 00d8 01000000 		.word	1
 817 00dc 00000000 		.word	0
 818 00e0 01000000 		.word	1
ARM GAS  C:\Users\bwil410\AppData\Local\Temp\cc206nDe.s 			page 18


 819 00e4 01000000 		.word	1
 820 00e8 00000000 		.word	0
 821 00ec 01000000 		.word	1
 822 00f0 00000000 		.word	0
 823 00f4 01000000 		.word	1
 824 00f8 00000000 		.word	0
 825 00fc 01000000 		.word	1
 826 0100 00000000 		.word	0
 827 0104 01000000 		.word	1
 828 0108 00000000 		.word	0
 829 010c 00000000 		.word	0
 830 0110 00000000 		.word	0
 831 0114 01000000 		.word	1
 832 0118 00000000 		.word	0
 833 011c 00000000 		.word	0
 834 0120 00000000 		.word	0
 835 0124 01000000 		.word	1
 836 0128 00000000 		.word	0
 837 012c 01000000 		.word	1
 838 0130 01000000 		.word	1
 839 0134 00000000 		.word	0
 840 0138 01000000 		.word	1
 841 013c 00000000 		.word	0
 842 0140 01000000 		.word	1
 843 0144 00000000 		.word	0
 844 0148 00000000 		.word	0
 845 014c 00000000 		.word	0
 846 0150 01000000 		.word	1
 847 0154 01000000 		.word	1
 848 0158 01000000 		.word	1
 849 015c 00000000 		.word	0
 850 0160 01000000 		.word	1
 851 0164 01000000 		.word	1
 852 0168 01000000 		.word	1
 853 016c 01000000 		.word	1
 854 0170 01000000 		.word	1
 855 0174 00000000 		.word	0
 856 0178 01000000 		.word	1
 857 017c 01000000 		.word	1
 858 0180 00000000 		.word	0
 859 0184 00000000 		.word	0
 860 0188 00000000 		.word	0
 861 018c 00000000 		.word	0
 862 0190 00000000 		.word	0
 863 0194 01000000 		.word	1
 864 0198 00000000 		.word	0
 865 019c 00000000 		.word	0
 866 01a0 00000000 		.word	0
 867 01a4 01000000 		.word	1
 868 01a8 00000000 		.word	0
 869 01ac 01000000 		.word	1
 870 01b0 00000000 		.word	0
 871 01b4 00000000 		.word	0
 872 01b8 00000000 		.word	0
 873 01bc 00000000 		.word	0
 874 01c0 00000000 		.word	0
 875 01c4 01000000 		.word	1
ARM GAS  C:\Users\bwil410\AppData\Local\Temp\cc206nDe.s 			page 19


 876 01c8 01000000 		.word	1
 877 01cc 01000000 		.word	1
 878 01d0 01000000 		.word	1
 879 01d4 01000000 		.word	1
 880 01d8 01000000 		.word	1
 881 01dc 01000000 		.word	1
 882 01e0 01000000 		.word	1
 883 01e4 00000000 		.word	0
 884 01e8 01000000 		.word	1
 885 01ec 00000000 		.word	0
 886 01f0 01000000 		.word	1
 887 01f4 00000000 		.word	0
 888 01f8 01000000 		.word	1
 889 01fc 00000000 		.word	0
 890 0200 01000000 		.word	1
 891 0204 01000000 		.word	1
 892 0208 01000000 		.word	1
 893 020c 00000000 		.word	0
 894 0210 01000000 		.word	1
 895 0214 01000000 		.word	1
 896 0218 00000000 		.word	0
 897 021c 00000000 		.word	0
 898 0220 00000000 		.word	0
 899 0224 00000000 		.word	0
 900 0228 00000000 		.word	0
 901 022c 00000000 		.word	0
 902 0230 00000000 		.word	0
 903 0234 01000000 		.word	1
 904 0238 00000000 		.word	0
 905 023c 01000000 		.word	1
 906 0240 00000000 		.word	0
 907 0244 01000000 		.word	1
 908 0248 00000000 		.word	0
 909 024c 01000000 		.word	1
 910 0250 00000000 		.word	0
 911 0254 00000000 		.word	0
 912 0258 00000000 		.word	0
 913 025c 01000000 		.word	1
 914 0260 01000000 		.word	1
 915 0264 01000000 		.word	1
 916 0268 01000000 		.word	1
 917 026c 00000000 		.word	0
 918 0270 01000000 		.word	1
 919 0274 00000000 		.word	0
 920 0278 01000000 		.word	1
 921 027c 01000000 		.word	1
 922 0280 01000000 		.word	1
 923 0284 01000000 		.word	1
 924 0288 01000000 		.word	1
 925 028c 00000000 		.word	0
 926 0290 01000000 		.word	1
 927 0294 00000000 		.word	0
 928 0298 01000000 		.word	1
 929 029c 00000000 		.word	0
 930 02a0 01000000 		.word	1
 931 02a4 01000000 		.word	1
 932 02a8 01000000 		.word	1
ARM GAS  C:\Users\bwil410\AppData\Local\Temp\cc206nDe.s 			page 20


 933 02ac 01000000 		.word	1
 934 02b0 00000000 		.word	0
 935 02b4 00000000 		.word	0
 936 02b8 00000000 		.word	0
 937 02bc 01000000 		.word	1
 938 02c0 00000000 		.word	0
 939 02c4 01000000 		.word	1
 940 02c8 00000000 		.word	0
 941 02cc 00000000 		.word	0
 942 02d0 00000000 		.word	0
 943 02d4 01000000 		.word	1
 944 02d8 00000000 		.word	0
 945 02dc 00000000 		.word	0
 946 02e0 00000000 		.word	0
 947 02e4 01000000 		.word	1
 948 02e8 00000000 		.word	0
 949 02ec 00000000 		.word	0
 950 02f0 00000000 		.word	0
 951 02f4 01000000 		.word	1
 952 02f8 01000000 		.word	1
 953 02fc 00000000 		.word	0
 954 0300 01000000 		.word	1
 955 0304 01000000 		.word	1
 956 0308 01000000 		.word	1
 957 030c 00000000 		.word	0
 958 0310 01000000 		.word	1
 959 0314 00000000 		.word	0
 960 0318 01000000 		.word	1
 961 031c 00000000 		.word	0
 962 0320 01000000 		.word	1
 963 0324 00000000 		.word	0
 964 0328 01000000 		.word	1
 965 032c 01000000 		.word	1
 966 0330 01000000 		.word	1
 967 0334 01000000 		.word	1
 968 0338 01000000 		.word	1
 969 033c 00000000 		.word	0
 970 0340 01000000 		.word	1
 971 0344 01000000 		.word	1
 972 0348 00000000 		.word	0
 973 034c 00000000 		.word	0
 974 0350 00000000 		.word	0
 975 0354 00000000 		.word	0
 976 0358 00000000 		.word	0
 977 035c 00000000 		.word	0
 978 0360 00000000 		.word	0
 979 0364 01000000 		.word	1
 980 0368 00000000 		.word	0
 981 036c 00000000 		.word	0
 982 0370 00000000 		.word	0
 983 0374 00000000 		.word	0
 984 0378 00000000 		.word	0
 985 037c 01000000 		.word	1
 986 0380 00000000 		.word	0
 987 0384 00000000 		.word	0
 988 0388 00000000 		.word	0
 989 038c 01000000 		.word	1
ARM GAS  C:\Users\bwil410\AppData\Local\Temp\cc206nDe.s 			page 21


 990 0390 01000000 		.word	1
 991 0394 00000000 		.word	0
 992 0398 01000000 		.word	1
 993 039c 01000000 		.word	1
 994 03a0 01000000 		.word	1
 995 03a4 01000000 		.word	1
 996 03a8 01000000 		.word	1
 997 03ac 01000000 		.word	1
 998 03b0 01000000 		.word	1
 999 03b4 00000000 		.word	0
 1000 03b8 01000000 		.word	1
 1001 03bc 01000000 		.word	1
 1002 03c0 01000000 		.word	1
 1003 03c4 01000000 		.word	1
 1004 03c8 01000000 		.word	1
 1005 03cc 00000000 		.word	0
 1006 03d0 01000000 		.word	1
 1007 03d4 01000000 		.word	1
 1008 03d8 01000000 		.word	1
 1009 03dc 01000000 		.word	1
 1010 03e0 00000000 		.word	0
 1011 03e4 00000000 		.word	0
 1012 03e8 00000000 		.word	0
 1013 03ec 00000000 		.word	0
 1014 03f0 00000000 		.word	0
 1015 03f4 00000000 		.word	0
 1016 03f8 00000000 		.word	0
 1017 03fc 01000000 		.word	1
 1018 0400 00000000 		.word	0
 1019 0404 00000000 		.word	0
 1020 0408 00000000 		.word	0
 1021 040c 00000000 		.word	0
 1022 0410 00000000 		.word	0
 1023 0414 00000000 		.word	0
 1024 0418 00000000 		.word	0
 1025 041c 00000000 		.word	0
 1026 0420 00000000 		.word	0
 1027 0424 01000000 		.word	1
 1028 0428 01000000 		.word	1
 1029 042c 01000000 		.word	1
 1030 0430 01000000 		.word	1
 1031 0434 01000000 		.word	1
 1032 0438 01000000 		.word	1
 1033 043c 01000000 		.word	1
 1034 0440 01000000 		.word	1
 1035 0444 01000000 		.word	1
 1036 0448 01000000 		.word	1
 1037 044c 01000000 		.word	1
 1038 0450 01000000 		.word	1
 1039 0454 01000000 		.word	1
 1040 0458 01000000 		.word	1
 1041 045c 01000000 		.word	1
 1042 0460 01000000 		.word	1
 1043 0464 01000000 		.word	1
 1044 0468 01000000 		.word	1
 1045 046c 01000000 		.word	1
 1046 0470 01000000 		.word	1
ARM GAS  C:\Users\bwil410\AppData\Local\Temp\cc206nDe.s 			page 22


 1047              		.type	food_list, %object
 1048              		.size	food_list, 48
 1049              	food_list:
 1050 0474 04000000 		.word	4
 1051 0478 05000000 		.word	5
 1052 047c 07000000 		.word	7
 1053 0480 01000000 		.word	1
 1054 0484 0B000000 		.word	11
 1055 0488 05000000 		.word	5
 1056 048c 0A000000 		.word	10
 1057 0490 0B000000 		.word	11
 1058 0494 05000000 		.word	5
 1059 0498 08000000 		.word	8
 1060 049c 11000000 		.word	17
 1061 04a0 02000000 		.word	2
 1062              		.bss
 1063              		.align	2
 1064              		.set	.LANCHOR1,. + 0
 1065              		.type	valid, %object
 1066              		.size	valid, 4
 1067              	valid:
 1068 0000 00000000 		.space	4
 1069              		.text
 1070              	.Letext0:
 1071              		.file 2 "./linkedlist.h"
 1072              		.file 3 "./map.h"
 1073              		.file 4 "./Astarpathfinding.h"
 1074              		.file 5 "c:\\program files (x86)\\cypress\\psoc creator\\3.3\\psoc creator\\import\\gnu\\arm\\4.9.