ARM GAS  C:\Users\bwil410\AppData\Local\Temp\ccGjxM0v.s 			page 1


   1              		.syntax unified
   2              		.cpu cortex-m3
   3              		.fpu softvfp
   4              		.eabi_attribute 20, 1
   5              		.eabi_attribute 21, 1
   6              		.eabi_attribute 23, 3
   7              		.eabi_attribute 24, 1
   8              		.eabi_attribute 25, 1
   9              		.eabi_attribute 26, 1
  10              		.eabi_attribute 30, 1
  11              		.eabi_attribute 34, 1
  12              		.eabi_attribute 18, 4
  13              		.thumb
  14              		.file	"cyfitter_cfg.c"
  15              		.text
  16              	.Ltext0:
  17              		.cfi_sections	.debug_frame
  18              		.section	.text.CyClockStartupError,"ax",%progbits
  19              		.align	2
  20              		.thumb
  21              		.thumb_func
  22              		.type	CyClockStartupError, %function
  23              	CyClockStartupError:
  24              	.LFB3:
  25              		.file 1 ".\\Generated_Source\\PSoC5\\cyfitter_cfg.c"
   1:.\Generated_Source\PSoC5/cyfitter_cfg.c **** /*******************************************************************************
   2:.\Generated_Source\PSoC5/cyfitter_cfg.c **** * File Name: cyfitter_cfg.c
   3:.\Generated_Source\PSoC5/cyfitter_cfg.c **** * 
   4:.\Generated_Source\PSoC5/cyfitter_cfg.c **** * PSoC Creator  3.3 CP3
   5:.\Generated_Source\PSoC5/cyfitter_cfg.c **** *
   6:.\Generated_Source\PSoC5/cyfitter_cfg.c **** * Description:
   7:.\Generated_Source\PSoC5/cyfitter_cfg.c **** * This file contains device initialization code.
   8:.\Generated_Source\PSoC5/cyfitter_cfg.c **** * Except for the user defined sections in CyClockStartupError(), this file should not be modified.
   9:.\Generated_Source\PSoC5/cyfitter_cfg.c **** * This file is automatically generated by PSoC Creator.
  10:.\Generated_Source\PSoC5/cyfitter_cfg.c **** *
  11:.\Generated_Source\PSoC5/cyfitter_cfg.c **** ********************************************************************************
  12:.\Generated_Source\PSoC5/cyfitter_cfg.c **** * Copyright (c) 2007-2016 Cypress Semiconductor.  All rights reserved.
  13:.\Generated_Source\PSoC5/cyfitter_cfg.c **** * You may use this file only in accordance with the license, terms, conditions, 
  14:.\Generated_Source\PSoC5/cyfitter_cfg.c **** * disclaimers, and limitations in the end user license agreement accompanying 
  15:.\Generated_Source\PSoC5/cyfitter_cfg.c **** * the software package with which this file was provided.
  16:.\Generated_Source\PSoC5/cyfitter_cfg.c **** ********************************************************************************/
  17:.\Generated_Source\PSoC5/cyfitter_cfg.c **** 
  18:.\Generated_Source\PSoC5/cyfitter_cfg.c **** #include <string.h>
  19:.\Generated_Source\PSoC5/cyfitter_cfg.c **** #include "cytypes.h"
  20:.\Generated_Source\PSoC5/cyfitter_cfg.c **** #include "cydevice_trm.h"
  21:.\Generated_Source\PSoC5/cyfitter_cfg.c **** #include "cyfitter.h"
  22:.\Generated_Source\PSoC5/cyfitter_cfg.c **** #include "CyLib.h"
  23:.\Generated_Source\PSoC5/cyfitter_cfg.c **** #include "cyfitter_cfg.h"
  24:.\Generated_Source\PSoC5/cyfitter_cfg.c **** 
  25:.\Generated_Source\PSoC5/cyfitter_cfg.c **** #define CY_NEED_CYCLOCKSTARTUPERROR 1
  26:.\Generated_Source\PSoC5/cyfitter_cfg.c **** 
  27:.\Generated_Source\PSoC5/cyfitter_cfg.c **** 
  28:.\Generated_Source\PSoC5/cyfitter_cfg.c **** #if defined(__GNUC__) || defined(__ARMCC_VERSION)
  29:.\Generated_Source\PSoC5/cyfitter_cfg.c ****     #define CYPACKED 
  30:.\Generated_Source\PSoC5/cyfitter_cfg.c ****     #define CYPACKED_ATTR __attribute__ ((packed))
  31:.\Generated_Source\PSoC5/cyfitter_cfg.c ****     #define CYALIGNED __attribute__ ((aligned))
  32:.\Generated_Source\PSoC5/cyfitter_cfg.c ****     #define CY_CFG_UNUSED __attribute__ ((unused))
ARM GAS  C:\Users\bwil410\AppData\Local\Temp\ccGjxM0v.s 			page 2


  33:.\Generated_Source\PSoC5/cyfitter_cfg.c ****     #ifndef CY_CFG_SECTION
  34:.\Generated_Source\PSoC5/cyfitter_cfg.c ****         #define CY_CFG_SECTION __attribute__ ((section(".psocinit")))
  35:.\Generated_Source\PSoC5/cyfitter_cfg.c ****     #endif
  36:.\Generated_Source\PSoC5/cyfitter_cfg.c ****     
  37:.\Generated_Source\PSoC5/cyfitter_cfg.c ****     #if defined(__ARMCC_VERSION)
  38:.\Generated_Source\PSoC5/cyfitter_cfg.c ****         #define CY_CFG_MEMORY_BARRIER() __memory_changed()
  39:.\Generated_Source\PSoC5/cyfitter_cfg.c ****     #else
  40:.\Generated_Source\PSoC5/cyfitter_cfg.c ****         #define CY_CFG_MEMORY_BARRIER() __sync_synchronize()
  41:.\Generated_Source\PSoC5/cyfitter_cfg.c ****     #endif
  42:.\Generated_Source\PSoC5/cyfitter_cfg.c ****     
  43:.\Generated_Source\PSoC5/cyfitter_cfg.c **** #elif defined(__ICCARM__)
  44:.\Generated_Source\PSoC5/cyfitter_cfg.c ****     #include <intrinsics.h>
  45:.\Generated_Source\PSoC5/cyfitter_cfg.c **** 
  46:.\Generated_Source\PSoC5/cyfitter_cfg.c ****     #define CYPACKED __packed
  47:.\Generated_Source\PSoC5/cyfitter_cfg.c ****     #define CYPACKED_ATTR 
  48:.\Generated_Source\PSoC5/cyfitter_cfg.c ****     #define CYALIGNED _Pragma("data_alignment=4")
  49:.\Generated_Source\PSoC5/cyfitter_cfg.c ****     #define CY_CFG_UNUSED _Pragma("diag_suppress=Pe177")
  50:.\Generated_Source\PSoC5/cyfitter_cfg.c ****     #define CY_CFG_SECTION _Pragma("location=\".psocinit\"")
  51:.\Generated_Source\PSoC5/cyfitter_cfg.c ****     
  52:.\Generated_Source\PSoC5/cyfitter_cfg.c ****     #define CY_CFG_MEMORY_BARRIER() __DMB()
  53:.\Generated_Source\PSoC5/cyfitter_cfg.c ****     
  54:.\Generated_Source\PSoC5/cyfitter_cfg.c **** #else
  55:.\Generated_Source\PSoC5/cyfitter_cfg.c ****     #error Unsupported toolchain
  56:.\Generated_Source\PSoC5/cyfitter_cfg.c **** #endif
  57:.\Generated_Source\PSoC5/cyfitter_cfg.c **** 
  58:.\Generated_Source\PSoC5/cyfitter_cfg.c **** 
  59:.\Generated_Source\PSoC5/cyfitter_cfg.c **** CY_CFG_UNUSED
  60:.\Generated_Source\PSoC5/cyfitter_cfg.c **** static void CYMEMZERO(void *s, size_t n);
  61:.\Generated_Source\PSoC5/cyfitter_cfg.c **** CY_CFG_UNUSED
  62:.\Generated_Source\PSoC5/cyfitter_cfg.c **** static void CYMEMZERO(void *s, size_t n)
  63:.\Generated_Source\PSoC5/cyfitter_cfg.c **** {
  64:.\Generated_Source\PSoC5/cyfitter_cfg.c **** 	(void)memset(s, 0, n);
  65:.\Generated_Source\PSoC5/cyfitter_cfg.c **** }
  66:.\Generated_Source\PSoC5/cyfitter_cfg.c **** CY_CFG_UNUSED
  67:.\Generated_Source\PSoC5/cyfitter_cfg.c **** static void CYCONFIGCPY(void *dest, const void *src, size_t n);
  68:.\Generated_Source\PSoC5/cyfitter_cfg.c **** CY_CFG_UNUSED
  69:.\Generated_Source\PSoC5/cyfitter_cfg.c **** static void CYCONFIGCPY(void *dest, const void *src, size_t n)
  70:.\Generated_Source\PSoC5/cyfitter_cfg.c **** {
  71:.\Generated_Source\PSoC5/cyfitter_cfg.c **** 	(void)memcpy(dest, src, n);
  72:.\Generated_Source\PSoC5/cyfitter_cfg.c **** }
  73:.\Generated_Source\PSoC5/cyfitter_cfg.c **** CY_CFG_UNUSED
  74:.\Generated_Source\PSoC5/cyfitter_cfg.c **** static void CYCONFIGCPYCODE(void *dest, const void *src, size_t n);
  75:.\Generated_Source\PSoC5/cyfitter_cfg.c **** CY_CFG_UNUSED
  76:.\Generated_Source\PSoC5/cyfitter_cfg.c **** static void CYCONFIGCPYCODE(void *dest, const void *src, size_t n)
  77:.\Generated_Source\PSoC5/cyfitter_cfg.c **** {
  78:.\Generated_Source\PSoC5/cyfitter_cfg.c **** 	(void)memcpy(dest, src, n);
  79:.\Generated_Source\PSoC5/cyfitter_cfg.c **** }
  80:.\Generated_Source\PSoC5/cyfitter_cfg.c **** 
  81:.\Generated_Source\PSoC5/cyfitter_cfg.c **** 
  82:.\Generated_Source\PSoC5/cyfitter_cfg.c **** 
  83:.\Generated_Source\PSoC5/cyfitter_cfg.c **** /* Clock startup error codes                                                   */
  84:.\Generated_Source\PSoC5/cyfitter_cfg.c **** #define CYCLOCKSTART_NO_ERROR    0u
  85:.\Generated_Source\PSoC5/cyfitter_cfg.c **** #define CYCLOCKSTART_XTAL_ERROR  1u
  86:.\Generated_Source\PSoC5/cyfitter_cfg.c **** #define CYCLOCKSTART_32KHZ_ERROR 2u
  87:.\Generated_Source\PSoC5/cyfitter_cfg.c **** #define CYCLOCKSTART_PLL_ERROR   3u
  88:.\Generated_Source\PSoC5/cyfitter_cfg.c **** 
  89:.\Generated_Source\PSoC5/cyfitter_cfg.c **** #ifdef CY_NEED_CYCLOCKSTARTUPERROR
ARM GAS  C:\Users\bwil410\AppData\Local\Temp\ccGjxM0v.s 			page 3


  90:.\Generated_Source\PSoC5/cyfitter_cfg.c **** /*******************************************************************************
  91:.\Generated_Source\PSoC5/cyfitter_cfg.c **** * Function Name: CyClockStartupError
  92:.\Generated_Source\PSoC5/cyfitter_cfg.c **** ********************************************************************************
  93:.\Generated_Source\PSoC5/cyfitter_cfg.c **** * Summary:
  94:.\Generated_Source\PSoC5/cyfitter_cfg.c **** *  If an error is encountered during clock configuration (crystal startup error,
  95:.\Generated_Source\PSoC5/cyfitter_cfg.c **** *  PLL lock error, etc.), the system will end up here.  Unless reimplemented by
  96:.\Generated_Source\PSoC5/cyfitter_cfg.c **** *  the customer, this function will stop in an infinite loop.
  97:.\Generated_Source\PSoC5/cyfitter_cfg.c **** *
  98:.\Generated_Source\PSoC5/cyfitter_cfg.c **** * Parameters:
  99:.\Generated_Source\PSoC5/cyfitter_cfg.c **** *   void
 100:.\Generated_Source\PSoC5/cyfitter_cfg.c **** *
 101:.\Generated_Source\PSoC5/cyfitter_cfg.c **** * Return:
 102:.\Generated_Source\PSoC5/cyfitter_cfg.c **** *   void
 103:.\Generated_Source\PSoC5/cyfitter_cfg.c **** *
 104:.\Generated_Source\PSoC5/cyfitter_cfg.c **** *******************************************************************************/
 105:.\Generated_Source\PSoC5/cyfitter_cfg.c **** CY_CFG_UNUSED
 106:.\Generated_Source\PSoC5/cyfitter_cfg.c **** static void CyClockStartupError(uint8 errorCode);
 107:.\Generated_Source\PSoC5/cyfitter_cfg.c **** CY_CFG_UNUSED
 108:.\Generated_Source\PSoC5/cyfitter_cfg.c **** static void CyClockStartupError(uint8 errorCode)
 109:.\Generated_Source\PSoC5/cyfitter_cfg.c **** {
  26              		.loc 1 109 0
  27              		.cfi_startproc
  28              		@ Volatile: function does not return.
  29              		@ args = 0, pretend = 0, frame = 0
  30              		@ frame_needed = 0, uses_anonymous_args = 0
  31              		@ link register save eliminated.
  32              	.LVL0:
  33              	.L2:
 110:.\Generated_Source\PSoC5/cyfitter_cfg.c ****     /* To remove the compiler warning if errorCode not used.                */
 111:.\Generated_Source\PSoC5/cyfitter_cfg.c ****     errorCode = errorCode;
 112:.\Generated_Source\PSoC5/cyfitter_cfg.c **** 
 113:.\Generated_Source\PSoC5/cyfitter_cfg.c ****     /* `#START CyClockStartupError` */
 114:.\Generated_Source\PSoC5/cyfitter_cfg.c **** 
 115:.\Generated_Source\PSoC5/cyfitter_cfg.c ****     /* If we have a clock startup error (bad MHz crystal, PLL lock, etc.),  */
 116:.\Generated_Source\PSoC5/cyfitter_cfg.c ****     /* we will end up here to allow the customer to implement something to  */
 117:.\Generated_Source\PSoC5/cyfitter_cfg.c ****     /* deal with the clock condition.                                       */
 118:.\Generated_Source\PSoC5/cyfitter_cfg.c **** 
 119:.\Generated_Source\PSoC5/cyfitter_cfg.c ****     /* `#END` */
 120:.\Generated_Source\PSoC5/cyfitter_cfg.c **** 
 121:.\Generated_Source\PSoC5/cyfitter_cfg.c ****     /* If nothing else, stop here since the clocks have not started         */
 122:.\Generated_Source\PSoC5/cyfitter_cfg.c ****     /* correctly.                                                           */
 123:.\Generated_Source\PSoC5/cyfitter_cfg.c ****     while(1) {}
  34              		.loc 1 123 0 discriminator 1
  35 0000 FEE7     		b	.L2
  36              		.cfi_endproc
  37              	.LFE3:
  38              		.size	CyClockStartupError, .-CyClockStartupError
  39 0002 00BF     		.section	.text.cfg_write_bytes32,"ax",%progbits
  40              		.align	2
  41              		.thumb
  42              		.thumb_func
  43              		.type	cfg_write_bytes32, %function
  44              	cfg_write_bytes32:
  45              	.LFB4:
 124:.\Generated_Source\PSoC5/cyfitter_cfg.c **** }
 125:.\Generated_Source\PSoC5/cyfitter_cfg.c **** #endif
 126:.\Generated_Source\PSoC5/cyfitter_cfg.c **** 
ARM GAS  C:\Users\bwil410\AppData\Local\Temp\ccGjxM0v.s 			page 4


 127:.\Generated_Source\PSoC5/cyfitter_cfg.c **** #define CY_CFG_BASE_ADDR_COUNT 43u
 128:.\Generated_Source\PSoC5/cyfitter_cfg.c **** CYPACKED typedef struct
 129:.\Generated_Source\PSoC5/cyfitter_cfg.c **** {
 130:.\Generated_Source\PSoC5/cyfitter_cfg.c **** 	uint8 offset;
 131:.\Generated_Source\PSoC5/cyfitter_cfg.c **** 	uint8 value;
 132:.\Generated_Source\PSoC5/cyfitter_cfg.c **** } CYPACKED_ATTR cy_cfg_addrvalue_t;
 133:.\Generated_Source\PSoC5/cyfitter_cfg.c **** 
 134:.\Generated_Source\PSoC5/cyfitter_cfg.c **** #define cy_cfg_addr_table ((const uint32 CYFAR *)0x48000000u)
 135:.\Generated_Source\PSoC5/cyfitter_cfg.c **** #define cy_cfg_data_table ((const cy_cfg_addrvalue_t CYFAR *)0x480000ACu)
 136:.\Generated_Source\PSoC5/cyfitter_cfg.c **** 
 137:.\Generated_Source\PSoC5/cyfitter_cfg.c **** /* IOPINS0_0 Address: CYREG_PRT0_DM0 Size (bytes): 8 */
 138:.\Generated_Source\PSoC5/cyfitter_cfg.c **** #define BS_IOPINS0_0_VAL ((const uint8 CYFAR *)0x4800102Cu)
 139:.\Generated_Source\PSoC5/cyfitter_cfg.c **** 
 140:.\Generated_Source\PSoC5/cyfitter_cfg.c **** /* IOPINS0_8 Address: CYREG_PRT15_DR Size (bytes): 10 */
 141:.\Generated_Source\PSoC5/cyfitter_cfg.c **** #define BS_IOPINS0_8_VAL ((const uint8 CYFAR *)0x48001034u)
 142:.\Generated_Source\PSoC5/cyfitter_cfg.c **** 
 143:.\Generated_Source\PSoC5/cyfitter_cfg.c **** /* IOPINS0_1 Address: CYREG_PRT1_DM0 Size (bytes): 8 */
 144:.\Generated_Source\PSoC5/cyfitter_cfg.c **** #define BS_IOPINS0_1_VAL ((const uint8 CYFAR *)0x48001040u)
 145:.\Generated_Source\PSoC5/cyfitter_cfg.c **** 
 146:.\Generated_Source\PSoC5/cyfitter_cfg.c **** /* IOPINS0_2 Address: CYREG_PRT2_DM0 Size (bytes): 8 */
 147:.\Generated_Source\PSoC5/cyfitter_cfg.c **** #define BS_IOPINS0_2_VAL ((const uint8 CYFAR *)0x48001048u)
 148:.\Generated_Source\PSoC5/cyfitter_cfg.c **** 
 149:.\Generated_Source\PSoC5/cyfitter_cfg.c **** /* IOPINS0_3 Address: CYREG_PRT3_DM0 Size (bytes): 8 */
 150:.\Generated_Source\PSoC5/cyfitter_cfg.c **** #define BS_IOPINS0_3_VAL ((const uint8 CYFAR *)0x48001050u)
 151:.\Generated_Source\PSoC5/cyfitter_cfg.c **** 
 152:.\Generated_Source\PSoC5/cyfitter_cfg.c **** /* PHUB_CFGMEM1 Address: CYREG_PHUB_CFGMEM1_CFG0 Size (bytes): 4 */
 153:.\Generated_Source\PSoC5/cyfitter_cfg.c **** #define BS_PHUB_CFGMEM1_VAL ((const uint8 CYFAR *)0x48001058u)
 154:.\Generated_Source\PSoC5/cyfitter_cfg.c **** 
 155:.\Generated_Source\PSoC5/cyfitter_cfg.c **** 
 156:.\Generated_Source\PSoC5/cyfitter_cfg.c **** /*******************************************************************************
 157:.\Generated_Source\PSoC5/cyfitter_cfg.c **** * Function Name: cfg_write_bytes32
 158:.\Generated_Source\PSoC5/cyfitter_cfg.c **** ********************************************************************************
 159:.\Generated_Source\PSoC5/cyfitter_cfg.c **** * Summary:
 160:.\Generated_Source\PSoC5/cyfitter_cfg.c **** *  This function is used for setting up the chip configuration areas that
 161:.\Generated_Source\PSoC5/cyfitter_cfg.c **** *  contain relatively sparse data.
 162:.\Generated_Source\PSoC5/cyfitter_cfg.c **** *
 163:.\Generated_Source\PSoC5/cyfitter_cfg.c **** * Parameters:
 164:.\Generated_Source\PSoC5/cyfitter_cfg.c **** *   void
 165:.\Generated_Source\PSoC5/cyfitter_cfg.c **** *
 166:.\Generated_Source\PSoC5/cyfitter_cfg.c **** * Return:
 167:.\Generated_Source\PSoC5/cyfitter_cfg.c **** *   void
 168:.\Generated_Source\PSoC5/cyfitter_cfg.c **** *
 169:.\Generated_Source\PSoC5/cyfitter_cfg.c **** *******************************************************************************/
 170:.\Generated_Source\PSoC5/cyfitter_cfg.c **** static void cfg_write_bytes32(const uint32 addr_table[], const cy_cfg_addrvalue_t data_table[]);
 171:.\Generated_Source\PSoC5/cyfitter_cfg.c **** static void cfg_write_bytes32(const uint32 addr_table[], const cy_cfg_addrvalue_t data_table[])
 172:.\Generated_Source\PSoC5/cyfitter_cfg.c **** {
  46              		.loc 1 172 0
  47              		.cfi_startproc
  48              		@ args = 0, pretend = 0, frame = 0
  49              		@ frame_needed = 0, uses_anonymous_args = 0
  50              		@ link register save eliminated.
  51              	.LVL1:
  52 0000 F0B4     		push	{r4, r5, r6, r7}
  53              		.cfi_def_cfa_offset 16
  54              		.cfi_offset 4, -16
  55              		.cfi_offset 5, -12
  56              		.cfi_offset 6, -8
ARM GAS  C:\Users\bwil410\AppData\Local\Temp\ccGjxM0v.s 			page 5


  57              		.cfi_offset 7, -4
  58              	.LVL2:
 173:.\Generated_Source\PSoC5/cyfitter_cfg.c **** 	/* For 32-bit little-endian architectures */
 174:.\Generated_Source\PSoC5/cyfitter_cfg.c **** 	uint32 i, j = 0u;
  59              		.loc 1 174 0
  60 0002 0022     		movs	r2, #0
 175:.\Generated_Source\PSoC5/cyfitter_cfg.c **** 	for (i = 0u; i < CY_CFG_BASE_ADDR_COUNT; i++)
  61              		.loc 1 175 0
  62 0004 1746     		mov	r7, r2
  63 0006 11E0     		b	.L4
  64              	.LVL3:
  65              	.L7:
  66              	.LBB2:
 176:.\Generated_Source\PSoC5/cyfitter_cfg.c **** 	{
 177:.\Generated_Source\PSoC5/cyfitter_cfg.c **** 		uint32 baseAddr = addr_table[i];
  67              		.loc 1 177 0
  68 0008 50F82760 		ldr	r6, [r0, r7, lsl #2]
  69              	.LVL4:
 178:.\Generated_Source\PSoC5/cyfitter_cfg.c **** 		uint8 count = (uint8)baseAddr;
  70              		.loc 1 178 0
  71 000c F3B2     		uxtb	r3, r6
  72              	.LVL5:
 179:.\Generated_Source\PSoC5/cyfitter_cfg.c **** 		baseAddr &= 0xFFFFFF00u;
  73              		.loc 1 179 0
  74 000e 26F0FF06 		bic	r6, r6, #255
  75              	.LVL6:
 180:.\Generated_Source\PSoC5/cyfitter_cfg.c **** 		while (count != 0u)
  76              		.loc 1 180 0
  77 0012 08E0     		b	.L5
  78              	.L6:
 181:.\Generated_Source\PSoC5/cyfitter_cfg.c **** 		{
 182:.\Generated_Source\PSoC5/cyfitter_cfg.c **** 			CY_SET_XTND_REG8((void CYFAR *)(baseAddr + data_table[j].offset), data_table[j].value);
  79              		.loc 1 182 0
  80 0014 01EB4205 		add	r5, r1, r2, lsl #1
  81 0018 11F81240 		ldrb	r4, [r1, r2, lsl #1]	@ zero_extendqisi2
  82 001c 6D78     		ldrb	r5, [r5, #1]	@ zero_extendqisi2
  83 001e A555     		strb	r5, [r4, r6]
 183:.\Generated_Source\PSoC5/cyfitter_cfg.c **** 			j++;
  84              		.loc 1 183 0
  85 0020 0132     		adds	r2, r2, #1
  86              	.LVL7:
 184:.\Generated_Source\PSoC5/cyfitter_cfg.c **** 			count--;
  87              		.loc 1 184 0
  88 0022 013B     		subs	r3, r3, #1
  89              	.LVL8:
  90 0024 DBB2     		uxtb	r3, r3
  91              	.LVL9:
  92              	.L5:
 180:.\Generated_Source\PSoC5/cyfitter_cfg.c **** 		{
  93              		.loc 1 180 0
  94 0026 002B     		cmp	r3, #0
  95 0028 F4D1     		bne	.L6
  96              	.LBE2:
 175:.\Generated_Source\PSoC5/cyfitter_cfg.c **** 	{
  97              		.loc 1 175 0 discriminator 2
  98 002a 0137     		adds	r7, r7, #1
  99              	.LVL10:
ARM GAS  C:\Users\bwil410\AppData\Local\Temp\ccGjxM0v.s 			page 6


 100              	.L4:
 175:.\Generated_Source\PSoC5/cyfitter_cfg.c **** 	{
 101              		.loc 1 175 0 is_stmt 0 discriminator 1
 102 002c 2A2F     		cmp	r7, #42
 103 002e EBD9     		bls	.L7
 185:.\Generated_Source\PSoC5/cyfitter_cfg.c **** 		}
 186:.\Generated_Source\PSoC5/cyfitter_cfg.c **** 	}
 187:.\Generated_Source\PSoC5/cyfitter_cfg.c **** }
 104              		.loc 1 187 0 is_stmt 1
 105 0030 F0BC     		pop	{r4, r5, r6, r7}
 106              		.cfi_restore 7
 107              		.cfi_restore 6
 108              		.cfi_restore 5
 109              		.cfi_restore 4
 110              		.cfi_def_cfa_offset 0
 111              	.LVL11:
 112 0032 7047     		bx	lr
 113              		.cfi_endproc
 114              	.LFE4:
 115              		.size	cfg_write_bytes32, .-cfg_write_bytes32
 116              		.section	.text.AnalogSetDefault,"ax",%progbits
 117              		.align	2
 118              		.thumb
 119              		.thumb_func
 120              		.type	AnalogSetDefault, %function
 121              	AnalogSetDefault:
 122              	.LFB6:
 188:.\Generated_Source\PSoC5/cyfitter_cfg.c **** 
 189:.\Generated_Source\PSoC5/cyfitter_cfg.c **** /*******************************************************************************
 190:.\Generated_Source\PSoC5/cyfitter_cfg.c **** * Function Name: ClockSetup
 191:.\Generated_Source\PSoC5/cyfitter_cfg.c **** ********************************************************************************
 192:.\Generated_Source\PSoC5/cyfitter_cfg.c **** *
 193:.\Generated_Source\PSoC5/cyfitter_cfg.c **** * Summary:
 194:.\Generated_Source\PSoC5/cyfitter_cfg.c **** *  Performs the initialization of all of the clocks in the device based on the
 195:.\Generated_Source\PSoC5/cyfitter_cfg.c **** *  settings in the Clock tab of the DWR.  This includes enabling the requested
 196:.\Generated_Source\PSoC5/cyfitter_cfg.c **** *  clocks and setting the necessary dividers to produce the desired frequency. 
 197:.\Generated_Source\PSoC5/cyfitter_cfg.c **** *
 198:.\Generated_Source\PSoC5/cyfitter_cfg.c **** * Parameters:
 199:.\Generated_Source\PSoC5/cyfitter_cfg.c **** *  void
 200:.\Generated_Source\PSoC5/cyfitter_cfg.c **** *
 201:.\Generated_Source\PSoC5/cyfitter_cfg.c **** * Return:
 202:.\Generated_Source\PSoC5/cyfitter_cfg.c **** *  void
 203:.\Generated_Source\PSoC5/cyfitter_cfg.c **** *
 204:.\Generated_Source\PSoC5/cyfitter_cfg.c **** *******************************************************************************/
 205:.\Generated_Source\PSoC5/cyfitter_cfg.c **** static void ClockSetup(void);
 206:.\Generated_Source\PSoC5/cyfitter_cfg.c **** static void ClockSetup(void)
 207:.\Generated_Source\PSoC5/cyfitter_cfg.c **** {
 208:.\Generated_Source\PSoC5/cyfitter_cfg.c **** 	uint32 timeout;
 209:.\Generated_Source\PSoC5/cyfitter_cfg.c **** 	uint8 pllLock;
 210:.\Generated_Source\PSoC5/cyfitter_cfg.c **** 
 211:.\Generated_Source\PSoC5/cyfitter_cfg.c **** 
 212:.\Generated_Source\PSoC5/cyfitter_cfg.c **** 	/* Configure Digital Clocks based on settings from Clock DWR */
 213:.\Generated_Source\PSoC5/cyfitter_cfg.c **** 	CY_SET_XTND_REG16((void CYFAR *)(CYREG_CLKDIST_DCFG0_CFG0), 0x0001u);
 214:.\Generated_Source\PSoC5/cyfitter_cfg.c **** 	CY_SET_XTND_REG8((void CYFAR *)(CYREG_CLKDIST_DCFG0_CFG0 + 0x2u), 0x18u);
 215:.\Generated_Source\PSoC5/cyfitter_cfg.c **** 	CY_SET_XTND_REG16((void CYFAR *)(CYREG_CLKDIST_DCFG1_CFG0), 0x0001u);
 216:.\Generated_Source\PSoC5/cyfitter_cfg.c **** 	CY_SET_XTND_REG8((void CYFAR *)(CYREG_CLKDIST_DCFG1_CFG0 + 0x2u), 0x18u);
 217:.\Generated_Source\PSoC5/cyfitter_cfg.c **** 	CY_SET_XTND_REG16((void CYFAR *)(CYREG_CLKDIST_DCFG2_CFG0), 0x0004u);
ARM GAS  C:\Users\bwil410\AppData\Local\Temp\ccGjxM0v.s 			page 7


 218:.\Generated_Source\PSoC5/cyfitter_cfg.c **** 	CY_SET_XTND_REG8((void CYFAR *)(CYREG_CLKDIST_DCFG2_CFG0 + 0x2u), 0x18u);
 219:.\Generated_Source\PSoC5/cyfitter_cfg.c **** 	CY_SET_XTND_REG16((void CYFAR *)(CYREG_CLKDIST_DCFG3_CFG0), 0x000Cu);
 220:.\Generated_Source\PSoC5/cyfitter_cfg.c **** 	CY_SET_XTND_REG8((void CYFAR *)(CYREG_CLKDIST_DCFG3_CFG0 + 0x2u), 0x18u);
 221:.\Generated_Source\PSoC5/cyfitter_cfg.c **** 	CY_SET_XTND_REG16((void CYFAR *)(CYREG_CLKDIST_DCFG4_CFG0), 0x0033u);
 222:.\Generated_Source\PSoC5/cyfitter_cfg.c **** 	CY_SET_XTND_REG8((void CYFAR *)(CYREG_CLKDIST_DCFG4_CFG0 + 0x2u), 0x18u);
 223:.\Generated_Source\PSoC5/cyfitter_cfg.c **** 
 224:.\Generated_Source\PSoC5/cyfitter_cfg.c **** 	/* Configure ILO based on settings from Clock DWR */
 225:.\Generated_Source\PSoC5/cyfitter_cfg.c **** 	CY_SET_XTND_REG8((void CYFAR *)(CYREG_SLOWCLK_ILO_CR0), 0x06u);
 226:.\Generated_Source\PSoC5/cyfitter_cfg.c **** 
 227:.\Generated_Source\PSoC5/cyfitter_cfg.c **** 	/* Configure IMO based on settings from Clock DWR */
 228:.\Generated_Source\PSoC5/cyfitter_cfg.c **** 	CY_SET_XTND_REG8((void CYFAR *)(CYREG_FASTCLK_IMO_CR), 0x52u);
 229:.\Generated_Source\PSoC5/cyfitter_cfg.c **** 	CY_SET_XTND_REG8((void CYFAR *)(CYREG_IMO_TR1), (CY_GET_XTND_REG8((void CYFAR *)CYREG_FLSHID_CUST_
 230:.\Generated_Source\PSoC5/cyfitter_cfg.c **** 
 231:.\Generated_Source\PSoC5/cyfitter_cfg.c **** 	/* Configure PLL based on settings from Clock DWR */
 232:.\Generated_Source\PSoC5/cyfitter_cfg.c **** 	CY_SET_XTND_REG16((void CYFAR *)(CYREG_FASTCLK_PLL_P), 0x0708u);
 233:.\Generated_Source\PSoC5/cyfitter_cfg.c **** 	CY_SET_XTND_REG16((void CYFAR *)(CYREG_FASTCLK_PLL_CFG0), 0x1251u);
 234:.\Generated_Source\PSoC5/cyfitter_cfg.c **** 	/* Wait up to 250us for the PLL to lock */
 235:.\Generated_Source\PSoC5/cyfitter_cfg.c **** 	pllLock = 0u;
 236:.\Generated_Source\PSoC5/cyfitter_cfg.c **** 	for (timeout = 250u / 10u; (timeout > 0u) && (pllLock != 0x03u); timeout--)
 237:.\Generated_Source\PSoC5/cyfitter_cfg.c **** 	{ 
 238:.\Generated_Source\PSoC5/cyfitter_cfg.c **** 		pllLock = 0x03u & ((uint8)((uint8)pllLock << 1) | ((CY_GET_XTND_REG8((void CYFAR *)CYREG_FASTCLK_
 239:.\Generated_Source\PSoC5/cyfitter_cfg.c **** 		CyDelayCycles(10u * 48u); /* Delay 10us based on 48MHz clock */
 240:.\Generated_Source\PSoC5/cyfitter_cfg.c **** 	}
 241:.\Generated_Source\PSoC5/cyfitter_cfg.c **** 	/* If we ran out of time the PLL didn't lock so go to the error function */
 242:.\Generated_Source\PSoC5/cyfitter_cfg.c **** 	if (timeout == 0u)
 243:.\Generated_Source\PSoC5/cyfitter_cfg.c **** 	{
 244:.\Generated_Source\PSoC5/cyfitter_cfg.c **** 		CyClockStartupError(CYCLOCKSTART_PLL_ERROR);
 245:.\Generated_Source\PSoC5/cyfitter_cfg.c **** 	}
 246:.\Generated_Source\PSoC5/cyfitter_cfg.c **** 
 247:.\Generated_Source\PSoC5/cyfitter_cfg.c **** 	/* Configure Bus/Master Clock based on settings from Clock DWR */
 248:.\Generated_Source\PSoC5/cyfitter_cfg.c **** 	CY_SET_XTND_REG16((void CYFAR *)(CYREG_CLKDIST_MSTR0), 0x0100u);
 249:.\Generated_Source\PSoC5/cyfitter_cfg.c **** 	CY_SET_XTND_REG8((void CYFAR *)(CYREG_CLKDIST_MSTR0), 0x07u);
 250:.\Generated_Source\PSoC5/cyfitter_cfg.c **** 	CY_SET_XTND_REG8((void CYFAR *)(CYREG_CLKDIST_BCFG0), 0x00u);
 251:.\Generated_Source\PSoC5/cyfitter_cfg.c **** 	CY_SET_XTND_REG8((void CYFAR *)(CYREG_CLKDIST_BCFG2), 0x48u);
 252:.\Generated_Source\PSoC5/cyfitter_cfg.c **** 	CY_SET_XTND_REG8((void CYFAR *)(CYREG_CLKDIST_MSTR0), 0x00u);
 253:.\Generated_Source\PSoC5/cyfitter_cfg.c **** 
 254:.\Generated_Source\PSoC5/cyfitter_cfg.c **** 	/* Configure USB Clock based on settings from Clock DWR */
 255:.\Generated_Source\PSoC5/cyfitter_cfg.c **** 	CY_SET_XTND_REG8((void CYFAR *)(CYREG_CLKDIST_UCFG), 0x00u);
 256:.\Generated_Source\PSoC5/cyfitter_cfg.c **** 	CY_SET_XTND_REG8((void CYFAR *)(CYREG_CLKDIST_LD), 0x02u);
 257:.\Generated_Source\PSoC5/cyfitter_cfg.c **** 
 258:.\Generated_Source\PSoC5/cyfitter_cfg.c **** 	CY_SET_XTND_REG8((void CYFAR *)(CYREG_PM_ACT_CFG2), ((CY_GET_XTND_REG8((void CYFAR *)CYREG_PM_ACT_
 259:.\Generated_Source\PSoC5/cyfitter_cfg.c **** }
 260:.\Generated_Source\PSoC5/cyfitter_cfg.c **** 
 261:.\Generated_Source\PSoC5/cyfitter_cfg.c **** 
 262:.\Generated_Source\PSoC5/cyfitter_cfg.c **** /* Analog API Functions */
 263:.\Generated_Source\PSoC5/cyfitter_cfg.c **** 
 264:.\Generated_Source\PSoC5/cyfitter_cfg.c **** 
 265:.\Generated_Source\PSoC5/cyfitter_cfg.c **** /*******************************************************************************
 266:.\Generated_Source\PSoC5/cyfitter_cfg.c **** * Function Name: AnalogSetDefault
 267:.\Generated_Source\PSoC5/cyfitter_cfg.c **** ********************************************************************************
 268:.\Generated_Source\PSoC5/cyfitter_cfg.c **** *
 269:.\Generated_Source\PSoC5/cyfitter_cfg.c **** * Summary:
 270:.\Generated_Source\PSoC5/cyfitter_cfg.c **** *  Sets up the analog portions of the chip to default values based on chip
 271:.\Generated_Source\PSoC5/cyfitter_cfg.c **** *  configuration options from the project.
 272:.\Generated_Source\PSoC5/cyfitter_cfg.c **** *
 273:.\Generated_Source\PSoC5/cyfitter_cfg.c **** * Parameters:
 274:.\Generated_Source\PSoC5/cyfitter_cfg.c **** *  void
ARM GAS  C:\Users\bwil410\AppData\Local\Temp\ccGjxM0v.s 			page 8


 275:.\Generated_Source\PSoC5/cyfitter_cfg.c **** *
 276:.\Generated_Source\PSoC5/cyfitter_cfg.c **** * Return:
 277:.\Generated_Source\PSoC5/cyfitter_cfg.c **** *  void
 278:.\Generated_Source\PSoC5/cyfitter_cfg.c **** *
 279:.\Generated_Source\PSoC5/cyfitter_cfg.c **** *******************************************************************************/
 280:.\Generated_Source\PSoC5/cyfitter_cfg.c **** static void AnalogSetDefault(void);
 281:.\Generated_Source\PSoC5/cyfitter_cfg.c **** static void AnalogSetDefault(void)
 282:.\Generated_Source\PSoC5/cyfitter_cfg.c **** {
 123              		.loc 1 282 0
 124              		.cfi_startproc
 125              		@ args = 0, pretend = 0, frame = 0
 126              		@ frame_needed = 0, uses_anonymous_args = 0
 127              		@ link register save eliminated.
 283:.\Generated_Source\PSoC5/cyfitter_cfg.c **** 	uint8 bg_xover_inl_trim = CY_GET_XTND_REG8((void CYFAR *)(CYREG_FLSHID_MFG_CFG_BG_XOVER_INL_TRIM +
 128              		.loc 1 283 0
 129 0000 114B     		ldr	r3, .L10
 130 0002 1B78     		ldrb	r3, [r3]	@ zero_extendqisi2
 131 0004 DBB2     		uxtb	r3, r3
 132              	.LVL12:
 284:.\Generated_Source\PSoC5/cyfitter_cfg.c **** 	CY_SET_XTND_REG8((void CYFAR *)(CYREG_BG_DFT0), (bg_xover_inl_trim & 0x07u));
 133              		.loc 1 284 0
 134 0006 03F00701 		and	r1, r3, #7
 135 000a 104A     		ldr	r2, .L10+4
 136 000c 1170     		strb	r1, [r2]
 285:.\Generated_Source\PSoC5/cyfitter_cfg.c **** 	CY_SET_XTND_REG8((void CYFAR *)(CYREG_BG_DFT1), ((bg_xover_inl_trim >> 4) & 0x0Fu));
 137              		.loc 1 285 0
 138 000e 1B09     		lsrs	r3, r3, #4
 139              	.LVL13:
 140 0010 0132     		adds	r2, r2, #1
 141 0012 1370     		strb	r3, [r2]
 286:.\Generated_Source\PSoC5/cyfitter_cfg.c **** 	CY_SET_XTND_REG8((void CYFAR *)CYREG_PRT0_AG, 0xC0u);
 142              		.loc 1 286 0
 143 0014 C022     		movs	r2, #192
 144 0016 0E4B     		ldr	r3, .L10+8
 145 0018 1A70     		strb	r2, [r3]
 287:.\Generated_Source\PSoC5/cyfitter_cfg.c **** 	CY_SET_XTND_REG8((void CYFAR *)CYREG_PRT1_AG, 0xE0u);
 146              		.loc 1 287 0
 147 001a E022     		movs	r2, #224
 148 001c 1033     		adds	r3, r3, #16
 149 001e 1A70     		strb	r2, [r3]
 288:.\Generated_Source\PSoC5/cyfitter_cfg.c **** 	CY_SET_XTND_REG8((void CYFAR *)CYREG_SAR0_SW0, 0xCCu);
 150              		.loc 1 288 0
 151 0020 CC22     		movs	r2, #204
 152 0022 03F60323 		addw	r3, r3, #2563
 153 0026 1A70     		strb	r2, [r3]
 289:.\Generated_Source\PSoC5/cyfitter_cfg.c **** 	CY_SET_XTND_REG8((void CYFAR *)CYREG_SAR0_SW3, 0x20u);
 154              		.loc 1 289 0
 155 0028 2023     		movs	r3, #32
 156 002a 0A4A     		ldr	r2, .L10+12
 157 002c 1370     		strb	r3, [r2]
 290:.\Generated_Source\PSoC5/cyfitter_cfg.c **** 	CY_SET_XTND_REG8((void CYFAR *)CYREG_SAR1_SW0, 0x02u);
 158              		.loc 1 290 0
 159 002e 0221     		movs	r1, #2
 160 0030 0532     		adds	r2, r2, #5
 161 0032 1170     		strb	r1, [r2]
 291:.\Generated_Source\PSoC5/cyfitter_cfg.c **** 	CY_SET_XTND_REG8((void CYFAR *)CYREG_SAR1_SW3, 0x20u);
 162              		.loc 1 291 0
ARM GAS  C:\Users\bwil410\AppData\Local\Temp\ccGjxM0v.s 			page 9


 163 0034 0332     		adds	r2, r2, #3
 164 0036 1370     		strb	r3, [r2]
 292:.\Generated_Source\PSoC5/cyfitter_cfg.c **** 	CY_SET_XTND_REG8((void CYFAR *)CYREG_BUS_SW0, 0x0Cu);
 165              		.loc 1 292 0
 166 0038 0C22     		movs	r2, #12
 167 003a 074B     		ldr	r3, .L10+16
 168 003c 1A70     		strb	r2, [r3]
 293:.\Generated_Source\PSoC5/cyfitter_cfg.c **** 	CY_SET_XTND_REG8((void CYFAR *)CYREG_PUMP_CR0, 0x44u);
 169              		.loc 1 293 0
 170 003e 4422     		movs	r2, #68
 171 0040 A3F2E223 		subw	r3, r3, #738
 172 0044 1A70     		strb	r2, [r3]
 173 0046 7047     		bx	lr
 174              	.L11:
 175              		.align	2
 176              	.L10:
 177 0048 CF010049 		.word	1224737231
 178 004c 6E580040 		.word	1073764462
 179 0050 0D510040 		.word	1073762573
 180 0054 235B0040 		.word	1073765155
 181 0058 585B0040 		.word	1073765208
 182              		.cfi_endproc
 183              	.LFE6:
 184              		.size	AnalogSetDefault, .-AnalogSetDefault
 185              		.section	.text.CYMEMZERO,"ax",%progbits
 186              		.align	2
 187              		.thumb
 188              		.thumb_func
 189              		.type	CYMEMZERO, %function
 190              	CYMEMZERO:
 191              	.LFB0:
  63:.\Generated_Source\PSoC5/cyfitter_cfg.c **** 	(void)memset(s, 0, n);
 192              		.loc 1 63 0
 193              		.cfi_startproc
 194              		@ args = 0, pretend = 0, frame = 0
 195              		@ frame_needed = 0, uses_anonymous_args = 0
 196              	.LVL14:
 197 0000 08B5     		push	{r3, lr}
 198              		.cfi_def_cfa_offset 8
 199              		.cfi_offset 3, -8
 200              		.cfi_offset 14, -4
 201 0002 0A46     		mov	r2, r1
  64:.\Generated_Source\PSoC5/cyfitter_cfg.c **** }
 202              		.loc 1 64 0
 203 0004 0021     		movs	r1, #0
 204              	.LVL15:
 205 0006 FFF7FEFF 		bl	memset
 206              	.LVL16:
 207 000a 08BD     		pop	{r3, pc}
 208              		.cfi_endproc
 209              	.LFE0:
 210              		.size	CYMEMZERO, .-CYMEMZERO
 211              		.section	.text.ClockSetup,"ax",%progbits
 212              		.align	2
 213              		.thumb
 214              		.thumb_func
 215              		.type	ClockSetup, %function
ARM GAS  C:\Users\bwil410\AppData\Local\Temp\ccGjxM0v.s 			page 10


 216              	ClockSetup:
 217              	.LFB5:
 207:.\Generated_Source\PSoC5/cyfitter_cfg.c **** 	uint32 timeout;
 218              		.loc 1 207 0
 219              		.cfi_startproc
 220              		@ args = 0, pretend = 0, frame = 0
 221              		@ frame_needed = 0, uses_anonymous_args = 0
 222 0000 38B5     		push	{r3, r4, r5, lr}
 223              		.cfi_def_cfa_offset 16
 224              		.cfi_offset 3, -16
 225              		.cfi_offset 4, -12
 226              		.cfi_offset 5, -8
 227              		.cfi_offset 14, -4
 213:.\Generated_Source\PSoC5/cyfitter_cfg.c **** 	CY_SET_XTND_REG8((void CYFAR *)(CYREG_CLKDIST_DCFG0_CFG0 + 0x2u), 0x18u);
 228              		.loc 1 213 0
 229 0002 0122     		movs	r2, #1
 230 0004 2D4B     		ldr	r3, .L20
 231 0006 1A80     		strh	r2, [r3]	@ movhi
 214:.\Generated_Source\PSoC5/cyfitter_cfg.c **** 	CY_SET_XTND_REG16((void CYFAR *)(CYREG_CLKDIST_DCFG1_CFG0), 0x0001u);
 232              		.loc 1 214 0
 233 0008 1823     		movs	r3, #24
 234 000a 2D49     		ldr	r1, .L20+4
 235 000c 0B70     		strb	r3, [r1]
 215:.\Generated_Source\PSoC5/cyfitter_cfg.c **** 	CY_SET_XTND_REG8((void CYFAR *)(CYREG_CLKDIST_DCFG1_CFG0 + 0x2u), 0x18u);
 236              		.loc 1 215 0
 237 000e 0231     		adds	r1, r1, #2
 238 0010 0A80     		strh	r2, [r1]	@ movhi
 216:.\Generated_Source\PSoC5/cyfitter_cfg.c **** 	CY_SET_XTND_REG16((void CYFAR *)(CYREG_CLKDIST_DCFG2_CFG0), 0x0004u);
 239              		.loc 1 216 0
 240 0012 2C4A     		ldr	r2, .L20+8
 241 0014 1370     		strb	r3, [r2]
 217:.\Generated_Source\PSoC5/cyfitter_cfg.c **** 	CY_SET_XTND_REG8((void CYFAR *)(CYREG_CLKDIST_DCFG2_CFG0 + 0x2u), 0x18u);
 242              		.loc 1 217 0
 243 0016 0421     		movs	r1, #4
 244 0018 0232     		adds	r2, r2, #2
 245 001a 1180     		strh	r1, [r2]	@ movhi
 218:.\Generated_Source\PSoC5/cyfitter_cfg.c **** 	CY_SET_XTND_REG16((void CYFAR *)(CYREG_CLKDIST_DCFG3_CFG0), 0x000Cu);
 246              		.loc 1 218 0
 247 001c 0232     		adds	r2, r2, #2
 248 001e 1370     		strb	r3, [r2]
 219:.\Generated_Source\PSoC5/cyfitter_cfg.c **** 	CY_SET_XTND_REG8((void CYFAR *)(CYREG_CLKDIST_DCFG3_CFG0 + 0x2u), 0x18u);
 249              		.loc 1 219 0
 250 0020 0C21     		movs	r1, #12
 251 0022 0232     		adds	r2, r2, #2
 252 0024 1180     		strh	r1, [r2]	@ movhi
 220:.\Generated_Source\PSoC5/cyfitter_cfg.c **** 	CY_SET_XTND_REG16((void CYFAR *)(CYREG_CLKDIST_DCFG4_CFG0), 0x0033u);
 253              		.loc 1 220 0
 254 0026 0232     		adds	r2, r2, #2
 255 0028 1370     		strb	r3, [r2]
 221:.\Generated_Source\PSoC5/cyfitter_cfg.c **** 	CY_SET_XTND_REG8((void CYFAR *)(CYREG_CLKDIST_DCFG4_CFG0 + 0x2u), 0x18u);
 256              		.loc 1 221 0
 257 002a 3321     		movs	r1, #51
 258 002c 0232     		adds	r2, r2, #2
 259 002e 1180     		strh	r1, [r2]	@ movhi
 222:.\Generated_Source\PSoC5/cyfitter_cfg.c **** 
 260              		.loc 1 222 0
 261 0030 0232     		adds	r2, r2, #2
ARM GAS  C:\Users\bwil410\AppData\Local\Temp\ccGjxM0v.s 			page 11


 262 0032 1370     		strb	r3, [r2]
 225:.\Generated_Source\PSoC5/cyfitter_cfg.c **** 
 263              		.loc 1 225 0
 264 0034 0622     		movs	r2, #6
 265 0036 244B     		ldr	r3, .L20+12
 266 0038 1A70     		strb	r2, [r3]
 228:.\Generated_Source\PSoC5/cyfitter_cfg.c **** 	CY_SET_XTND_REG8((void CYFAR *)(CYREG_IMO_TR1), (CY_GET_XTND_REG8((void CYFAR *)CYREG_FLSHID_CUST_
 267              		.loc 1 228 0
 268 003a 5222     		movs	r2, #82
 269 003c A3F58073 		sub	r3, r3, #256
 270 0040 1A70     		strb	r2, [r3]
 229:.\Generated_Source\PSoC5/cyfitter_cfg.c **** 
 271              		.loc 1 229 0
 272 0042 224B     		ldr	r3, .L20+16
 273 0044 1B78     		ldrb	r3, [r3]	@ zero_extendqisi2
 274 0046 DBB2     		uxtb	r3, r3
 275 0048 214A     		ldr	r2, .L20+20
 276 004a 1370     		strb	r3, [r2]
 232:.\Generated_Source\PSoC5/cyfitter_cfg.c **** 	CY_SET_XTND_REG16((void CYFAR *)(CYREG_FASTCLK_PLL_CFG0), 0x1251u);
 277              		.loc 1 232 0
 278 004c 4FF4E162 		mov	r2, #1800
 279 0050 204B     		ldr	r3, .L20+24
 280 0052 1A80     		strh	r2, [r3]	@ movhi
 233:.\Generated_Source\PSoC5/cyfitter_cfg.c **** 	/* Wait up to 250us for the PLL to lock */
 281              		.loc 1 233 0
 282 0054 41F25122 		movw	r2, #4689
 283 0058 023B     		subs	r3, r3, #2
 284 005a 1A80     		strh	r2, [r3]	@ movhi
 285              	.LVL17:
 235:.\Generated_Source\PSoC5/cyfitter_cfg.c **** 	for (timeout = 250u / 10u; (timeout > 0u) && (pllLock != 0x03u); timeout--)
 286              		.loc 1 235 0
 287 005c 0024     		movs	r4, #0
 236:.\Generated_Source\PSoC5/cyfitter_cfg.c **** 	{ 
 288              		.loc 1 236 0
 289 005e 1925     		movs	r5, #25
 290 0060 0CE0     		b	.L15
 291              	.LVL18:
 292              	.L17:
 238:.\Generated_Source\PSoC5/cyfitter_cfg.c **** 		CyDelayCycles(10u * 48u); /* Delay 10us based on 48MHz clock */
 293              		.loc 1 238 0 discriminator 4
 294 0062 1D4B     		ldr	r3, .L20+28
 295 0064 1B78     		ldrb	r3, [r3]	@ zero_extendqisi2
 296 0066 03F00103 		and	r3, r3, #1
 297 006a 43EA4404 		orr	r4, r3, r4, lsl #1
 298              	.LVL19:
 299 006e 04F00304 		and	r4, r4, #3
 300              	.LVL20:
 239:.\Generated_Source\PSoC5/cyfitter_cfg.c **** 	}
 301              		.loc 1 239 0 discriminator 4
 302 0072 4FF4F070 		mov	r0, #480
 303 0076 FFF7FEFF 		bl	CyDelayCycles
 304              	.LVL21:
 236:.\Generated_Source\PSoC5/cyfitter_cfg.c **** 	{ 
 305              		.loc 1 236 0 discriminator 4
 306 007a 013D     		subs	r5, r5, #1
 307              	.LVL22:
 308              	.L15:
ARM GAS  C:\Users\bwil410\AppData\Local\Temp\ccGjxM0v.s 			page 12


 236:.\Generated_Source\PSoC5/cyfitter_cfg.c **** 	{ 
 309              		.loc 1 236 0 is_stmt 0 discriminator 1
 310 007c 0DB1     		cbz	r5, .L16
 236:.\Generated_Source\PSoC5/cyfitter_cfg.c **** 	{ 
 311              		.loc 1 236 0 discriminator 3
 312 007e 032C     		cmp	r4, #3
 313 0080 EFD1     		bne	.L17
 314              	.L16:
 242:.\Generated_Source\PSoC5/cyfitter_cfg.c **** 	{
 315              		.loc 1 242 0 is_stmt 1
 316 0082 15B9     		cbnz	r5, .L18
 244:.\Generated_Source\PSoC5/cyfitter_cfg.c **** 	}
 317              		.loc 1 244 0
 318 0084 0320     		movs	r0, #3
 319 0086 FFF7FEFF 		bl	CyClockStartupError
 320              	.LVL23:
 321              	.L18:
 248:.\Generated_Source\PSoC5/cyfitter_cfg.c **** 	CY_SET_XTND_REG8((void CYFAR *)(CYREG_CLKDIST_MSTR0), 0x07u);
 322              		.loc 1 248 0
 323 008a 144A     		ldr	r2, .L20+32
 324 008c 4FF48073 		mov	r3, #256
 325 0090 1380     		strh	r3, [r2]	@ movhi
 249:.\Generated_Source\PSoC5/cyfitter_cfg.c **** 	CY_SET_XTND_REG8((void CYFAR *)(CYREG_CLKDIST_BCFG0), 0x00u);
 326              		.loc 1 249 0
 327 0092 0723     		movs	r3, #7
 328 0094 1370     		strb	r3, [r2]
 250:.\Generated_Source\PSoC5/cyfitter_cfg.c **** 	CY_SET_XTND_REG8((void CYFAR *)(CYREG_CLKDIST_BCFG2), 0x48u);
 329              		.loc 1 250 0
 330 0096 0023     		movs	r3, #0
 331 0098 1149     		ldr	r1, .L20+36
 332 009a 0B70     		strb	r3, [r1]
 251:.\Generated_Source\PSoC5/cyfitter_cfg.c **** 	CY_SET_XTND_REG8((void CYFAR *)(CYREG_CLKDIST_MSTR0), 0x00u);
 333              		.loc 1 251 0
 334 009c 4820     		movs	r0, #72
 335 009e 0231     		adds	r1, r1, #2
 336 00a0 0870     		strb	r0, [r1]
 252:.\Generated_Source\PSoC5/cyfitter_cfg.c **** 
 337              		.loc 1 252 0
 338 00a2 1370     		strb	r3, [r2]
 255:.\Generated_Source\PSoC5/cyfitter_cfg.c **** 	CY_SET_XTND_REG8((void CYFAR *)(CYREG_CLKDIST_LD), 0x02u);
 339              		.loc 1 255 0
 340 00a4 0532     		adds	r2, r2, #5
 341 00a6 1370     		strb	r3, [r2]
 256:.\Generated_Source\PSoC5/cyfitter_cfg.c **** 
 342              		.loc 1 256 0
 343 00a8 0222     		movs	r2, #2
 344 00aa 0E4B     		ldr	r3, .L20+40
 345 00ac 1A70     		strb	r2, [r3]
 258:.\Generated_Source\PSoC5/cyfitter_cfg.c **** }
 346              		.loc 1 258 0
 347 00ae 0E4A     		ldr	r2, .L20+44
 348 00b0 1378     		ldrb	r3, [r2]	@ zero_extendqisi2
 349 00b2 43F01F03 		orr	r3, r3, #31
 350 00b6 1370     		strb	r3, [r2]
 351 00b8 38BD     		pop	{r3, r4, r5, pc}
 352              	.LVL24:
 353              	.L21:
ARM GAS  C:\Users\bwil410\AppData\Local\Temp\ccGjxM0v.s 			page 13


 354 00ba 00BF     		.align	2
 355              	.L20:
 356 00bc 80400040 		.word	1073758336
 357 00c0 82400040 		.word	1073758338
 358 00c4 86400040 		.word	1073758342
 359 00c8 00430040 		.word	1073758976
 360 00cc 0F010049 		.word	1224737039
 361 00d0 A1460040 		.word	1073759905
 362 00d4 22420040 		.word	1073758754
 363 00d8 25420040 		.word	1073758757
 364 00dc 04400040 		.word	1073758212
 365 00e0 06400040 		.word	1073758214
 366 00e4 01400040 		.word	1073758209
 367 00e8 A2430040 		.word	1073759138
 368              		.cfi_endproc
 369              	.LFE5:
 370              		.size	ClockSetup, .-ClockSetup
 371              		.section	.text.CYCONFIGCPY,"ax",%progbits
 372              		.align	2
 373              		.thumb
 374              		.thumb_func
 375              		.type	CYCONFIGCPY, %function
 376              	CYCONFIGCPY:
 377              	.LFB1:
  70:.\Generated_Source\PSoC5/cyfitter_cfg.c **** 	(void)memcpy(dest, src, n);
 378              		.loc 1 70 0
 379              		.cfi_startproc
 380              		@ args = 0, pretend = 0, frame = 0
 381              		@ frame_needed = 0, uses_anonymous_args = 0
 382              	.LVL25:
 383 0000 08B5     		push	{r3, lr}
 384              		.cfi_def_cfa_offset 8
 385              		.cfi_offset 3, -8
 386              		.cfi_offset 14, -4
  71:.\Generated_Source\PSoC5/cyfitter_cfg.c **** }
 387              		.loc 1 71 0
 388 0002 FFF7FEFF 		bl	memcpy
 389              	.LVL26:
 390 0006 08BD     		pop	{r3, pc}
 391              		.cfi_endproc
 392              	.LFE1:
 393              		.size	CYCONFIGCPY, .-CYCONFIGCPY
 394              		.section	.text.SetAnalogRoutingPumps,"ax",%progbits
 395              		.align	2
 396              		.global	SetAnalogRoutingPumps
 397              		.thumb
 398              		.thumb_func
 399              		.type	SetAnalogRoutingPumps, %function
 400              	SetAnalogRoutingPumps:
 401              	.LFB7:
 294:.\Generated_Source\PSoC5/cyfitter_cfg.c **** }
 295:.\Generated_Source\PSoC5/cyfitter_cfg.c **** 
 296:.\Generated_Source\PSoC5/cyfitter_cfg.c **** 
 297:.\Generated_Source\PSoC5/cyfitter_cfg.c **** /*******************************************************************************
 298:.\Generated_Source\PSoC5/cyfitter_cfg.c **** * Function Name: SetAnalogRoutingPumps
 299:.\Generated_Source\PSoC5/cyfitter_cfg.c **** ********************************************************************************
 300:.\Generated_Source\PSoC5/cyfitter_cfg.c **** *
ARM GAS  C:\Users\bwil410\AppData\Local\Temp\ccGjxM0v.s 			page 14


 301:.\Generated_Source\PSoC5/cyfitter_cfg.c **** * Summary:
 302:.\Generated_Source\PSoC5/cyfitter_cfg.c **** * Enables or disables the analog pumps feeding analog routing switches.
 303:.\Generated_Source\PSoC5/cyfitter_cfg.c **** * Intended to be called at startup, based on the Vdda system configuration;
 304:.\Generated_Source\PSoC5/cyfitter_cfg.c **** * may be called during operation when the user informs us that the Vdda voltage
 305:.\Generated_Source\PSoC5/cyfitter_cfg.c **** * crossed the pump threshold.
 306:.\Generated_Source\PSoC5/cyfitter_cfg.c **** *
 307:.\Generated_Source\PSoC5/cyfitter_cfg.c **** * Parameters:
 308:.\Generated_Source\PSoC5/cyfitter_cfg.c **** *  enabled - 1 to enable the pumps, 0 to disable the pumps
 309:.\Generated_Source\PSoC5/cyfitter_cfg.c **** *
 310:.\Generated_Source\PSoC5/cyfitter_cfg.c **** * Return:
 311:.\Generated_Source\PSoC5/cyfitter_cfg.c **** *  void
 312:.\Generated_Source\PSoC5/cyfitter_cfg.c **** *
 313:.\Generated_Source\PSoC5/cyfitter_cfg.c **** *******************************************************************************/
 314:.\Generated_Source\PSoC5/cyfitter_cfg.c **** void SetAnalogRoutingPumps(uint8 enabled)
 315:.\Generated_Source\PSoC5/cyfitter_cfg.c **** {
 402              		.loc 1 315 0
 403              		.cfi_startproc
 404              		@ args = 0, pretend = 0, frame = 0
 405              		@ frame_needed = 0, uses_anonymous_args = 0
 406              		@ link register save eliminated.
 407              	.LVL27:
 316:.\Generated_Source\PSoC5/cyfitter_cfg.c **** 	uint8 regValue = CY_GET_XTND_REG8((void CYFAR *)CYREG_PUMP_CR0);
 408              		.loc 1 316 0
 409 0000 054B     		ldr	r3, .L27
 410 0002 1B78     		ldrb	r3, [r3]	@ zero_extendqisi2
 411 0004 DBB2     		uxtb	r3, r3
 412              	.LVL28:
 317:.\Generated_Source\PSoC5/cyfitter_cfg.c **** 	if (enabled != 0u)
 413              		.loc 1 317 0
 414 0006 10B1     		cbz	r0, .L25
 318:.\Generated_Source\PSoC5/cyfitter_cfg.c **** 	{
 319:.\Generated_Source\PSoC5/cyfitter_cfg.c **** 		regValue |= 0x22u;
 415              		.loc 1 319 0
 416 0008 43F02203 		orr	r3, r3, #34
 417              	.LVL29:
 418 000c 01E0     		b	.L26
 419              	.L25:
 320:.\Generated_Source\PSoC5/cyfitter_cfg.c **** 	}
 321:.\Generated_Source\PSoC5/cyfitter_cfg.c **** 	else
 322:.\Generated_Source\PSoC5/cyfitter_cfg.c **** 	{
 323:.\Generated_Source\PSoC5/cyfitter_cfg.c **** 		regValue &= (uint8)~0x22u;
 420              		.loc 1 323 0
 421 000e 03F0DD03 		and	r3, r3, #221
 422              	.LVL30:
 423              	.L26:
 324:.\Generated_Source\PSoC5/cyfitter_cfg.c **** 	}
 325:.\Generated_Source\PSoC5/cyfitter_cfg.c **** 	CY_SET_XTND_REG8((void CYFAR *)CYREG_PUMP_CR0, regValue);
 424              		.loc 1 325 0
 425 0012 014A     		ldr	r2, .L27
 426 0014 1370     		strb	r3, [r2]
 427 0016 7047     		bx	lr
 428              	.L28:
 429              		.align	2
 430              	.L27:
 431 0018 76580040 		.word	1073764470
 432              		.cfi_endproc
 433              	.LFE7:
ARM GAS  C:\Users\bwil410\AppData\Local\Temp\ccGjxM0v.s 			page 15


 434              		.size	SetAnalogRoutingPumps, .-SetAnalogRoutingPumps
 435              		.section	.text.cyfitter_cfg,"ax",%progbits
 436              		.align	2
 437              		.global	cyfitter_cfg
 438              		.thumb
 439              		.thumb_func
 440              		.type	cyfitter_cfg, %function
 441              	cyfitter_cfg:
 442              	.LFB8:
 326:.\Generated_Source\PSoC5/cyfitter_cfg.c **** }
 327:.\Generated_Source\PSoC5/cyfitter_cfg.c **** 
 328:.\Generated_Source\PSoC5/cyfitter_cfg.c **** #define CY_AMUX_UNUSED CYREG_BOOST_SR
 329:.\Generated_Source\PSoC5/cyfitter_cfg.c **** 
 330:.\Generated_Source\PSoC5/cyfitter_cfg.c **** 
 331:.\Generated_Source\PSoC5/cyfitter_cfg.c **** /*******************************************************************************
 332:.\Generated_Source\PSoC5/cyfitter_cfg.c **** * Function Name: cyfitter_cfg
 333:.\Generated_Source\PSoC5/cyfitter_cfg.c **** ********************************************************************************
 334:.\Generated_Source\PSoC5/cyfitter_cfg.c **** * Summary:
 335:.\Generated_Source\PSoC5/cyfitter_cfg.c **** *  This function is called by the start-up code for the selected device. It
 336:.\Generated_Source\PSoC5/cyfitter_cfg.c **** *  performs all of the necessary device configuration based on the design
 337:.\Generated_Source\PSoC5/cyfitter_cfg.c **** *  settings.  This includes settings from the Design Wide Resources (DWR) such
 338:.\Generated_Source\PSoC5/cyfitter_cfg.c **** *  as Clocks and Pins as well as any component configuration that is necessary.
 339:.\Generated_Source\PSoC5/cyfitter_cfg.c **** *
 340:.\Generated_Source\PSoC5/cyfitter_cfg.c **** * Parameters:  
 341:.\Generated_Source\PSoC5/cyfitter_cfg.c **** *   void
 342:.\Generated_Source\PSoC5/cyfitter_cfg.c **** *
 343:.\Generated_Source\PSoC5/cyfitter_cfg.c **** * Return:
 344:.\Generated_Source\PSoC5/cyfitter_cfg.c **** *   void
 345:.\Generated_Source\PSoC5/cyfitter_cfg.c **** *
 346:.\Generated_Source\PSoC5/cyfitter_cfg.c **** *******************************************************************************/
 347:.\Generated_Source\PSoC5/cyfitter_cfg.c **** 
 348:.\Generated_Source\PSoC5/cyfitter_cfg.c **** void cyfitter_cfg(void)
 349:.\Generated_Source\PSoC5/cyfitter_cfg.c **** {
 443              		.loc 1 349 0
 444              		.cfi_startproc
 445              		@ args = 0, pretend = 0, frame = 0
 446              		@ frame_needed = 0, uses_anonymous_args = 0
 447 0000 38B5     		push	{r3, r4, r5, lr}
 448              		.cfi_def_cfa_offset 16
 449              		.cfi_offset 3, -16
 450              		.cfi_offset 4, -12
 451              		.cfi_offset 5, -8
 452              		.cfi_offset 14, -4
 350:.\Generated_Source\PSoC5/cyfitter_cfg.c **** #ifdef CYGlobalIntDisable
 351:.\Generated_Source\PSoC5/cyfitter_cfg.c **** 	/* Disable interrupts by default. Let user enable if/when they want. */
 352:.\Generated_Source\PSoC5/cyfitter_cfg.c **** 	CYGlobalIntDisable
 453              		.loc 1 352 0
 454              	@ 352 ".\Generated_Source\PSoC5\cyfitter_cfg.c" 1
 455 0002 72B6     		CPSID   i
 456              	@ 0 "" 2
 353:.\Generated_Source\PSoC5/cyfitter_cfg.c **** #endif
 354:.\Generated_Source\PSoC5/cyfitter_cfg.c **** 
 355:.\Generated_Source\PSoC5/cyfitter_cfg.c **** 	/* Enable/Disable Debug functionality based on settings from System DWR */
 356:.\Generated_Source\PSoC5/cyfitter_cfg.c **** 	CY_SET_XTND_REG8((void CYFAR *)CYREG_MLOGIC_DEBUG, (CY_GET_XTND_REG8((void CYFAR *)CYREG_MLOGIC_DE
 457              		.loc 1 356 0
 458              		.thumb
 459 0004 344A     		ldr	r2, .L33
ARM GAS  C:\Users\bwil410\AppData\Local\Temp\ccGjxM0v.s 			page 16


 460 0006 1378     		ldrb	r3, [r2]	@ zero_extendqisi2
 461 0008 43F00403 		orr	r3, r3, #4
 462 000c 1370     		strb	r3, [r2]
 463              	.LVL31:
 464              	.LBB3:
 357:.\Generated_Source\PSoC5/cyfitter_cfg.c **** 
 358:.\Generated_Source\PSoC5/cyfitter_cfg.c **** 	{
 359:.\Generated_Source\PSoC5/cyfitter_cfg.c **** 
 360:.\Generated_Source\PSoC5/cyfitter_cfg.c **** 		CYPACKED typedef struct {
 361:.\Generated_Source\PSoC5/cyfitter_cfg.c **** 			void CYFAR *address;
 362:.\Generated_Source\PSoC5/cyfitter_cfg.c **** 			uint16 size;
 363:.\Generated_Source\PSoC5/cyfitter_cfg.c **** 		} CYPACKED_ATTR cfg_memset_t;
 364:.\Generated_Source\PSoC5/cyfitter_cfg.c **** 
 365:.\Generated_Source\PSoC5/cyfitter_cfg.c **** 		static const cfg_memset_t CYCODE cfg_memset_list [] = {
 366:.\Generated_Source\PSoC5/cyfitter_cfg.c **** 			/* address, size */
 367:.\Generated_Source\PSoC5/cyfitter_cfg.c **** 			{(void CYFAR *)(CYREG_PRT4_DR), 48u},
 368:.\Generated_Source\PSoC5/cyfitter_cfg.c **** 			{(void CYFAR *)(CYREG_PRT12_DR), 16u},
 369:.\Generated_Source\PSoC5/cyfitter_cfg.c **** 			{(void CYFAR *)(CYDEV_UCFG_B0_P0_U0_BASE), 4096u},
 370:.\Generated_Source\PSoC5/cyfitter_cfg.c **** 			{(void CYFAR *)(CYDEV_UCFG_B1_P2_U0_BASE), 2048u},
 371:.\Generated_Source\PSoC5/cyfitter_cfg.c **** 			{(void CYFAR *)(CYDEV_UCFG_DSI0_BASE), 2560u},
 372:.\Generated_Source\PSoC5/cyfitter_cfg.c **** 			{(void CYFAR *)(CYDEV_UCFG_DSI12_BASE), 512u},
 373:.\Generated_Source\PSoC5/cyfitter_cfg.c **** 			{(void CYFAR *)(CYREG_BCTL0_MDCLK_EN), 32u},
 374:.\Generated_Source\PSoC5/cyfitter_cfg.c **** 		};
 375:.\Generated_Source\PSoC5/cyfitter_cfg.c **** 
 376:.\Generated_Source\PSoC5/cyfitter_cfg.c **** 		uint8 CYDATA i;
 377:.\Generated_Source\PSoC5/cyfitter_cfg.c **** 
 378:.\Generated_Source\PSoC5/cyfitter_cfg.c **** 		/* Zero out critical memory blocks before beginning configuration */
 379:.\Generated_Source\PSoC5/cyfitter_cfg.c **** 		for (i = 0u; i < (sizeof(cfg_memset_list)/sizeof(cfg_memset_list[0])); i++)
 465              		.loc 1 379 0
 466 000e 0024     		movs	r4, #0
 467 0010 0CE0     		b	.L30
 468              	.LVL32:
 469              	.L31:
 470              	.LBB4:
 380:.\Generated_Source\PSoC5/cyfitter_cfg.c **** 		{
 381:.\Generated_Source\PSoC5/cyfitter_cfg.c **** 			const cfg_memset_t CYCODE * CYDATA ms = &cfg_memset_list[i];
 382:.\Generated_Source\PSoC5/cyfitter_cfg.c **** 			CYMEMZERO(ms->address, (size_t)(uint32)(ms->size));
 471              		.loc 1 382 0 discriminator 3
 472 0012 3249     		ldr	r1, .L33+4
 473 0014 6300     		lsls	r3, r4, #1
 474 0016 1A19     		adds	r2, r3, r4
 475 0018 5200     		lsls	r2, r2, #1
 476 001a 0A44     		add	r2, r2, r1
 477 001c 2344     		add	r3, r3, r4
 478 001e 5B00     		lsls	r3, r3, #1
 479 0020 C858     		ldr	r0, [r1, r3]	@ unaligned
 480 0022 9188     		ldrh	r1, [r2, #4]
 481 0024 FFF7FEFF 		bl	CYMEMZERO
 482              	.LVL33:
 483              	.LBE4:
 379:.\Generated_Source\PSoC5/cyfitter_cfg.c **** 		{
 484              		.loc 1 379 0 discriminator 3
 485 0028 0134     		adds	r4, r4, #1
 486              	.LVL34:
 487 002a E4B2     		uxtb	r4, r4
 488              	.LVL35:
 489              	.L30:
ARM GAS  C:\Users\bwil410\AppData\Local\Temp\ccGjxM0v.s 			page 17


 379:.\Generated_Source\PSoC5/cyfitter_cfg.c **** 		{
 490              		.loc 1 379 0 is_stmt 0 discriminator 1
 491 002c 062C     		cmp	r4, #6
 492 002e F0D9     		bls	.L31
 383:.\Generated_Source\PSoC5/cyfitter_cfg.c **** 		}
 384:.\Generated_Source\PSoC5/cyfitter_cfg.c **** 
 385:.\Generated_Source\PSoC5/cyfitter_cfg.c **** 		cfg_write_bytes32(cy_cfg_addr_table, cy_cfg_data_table);
 493              		.loc 1 385 0 is_stmt 1
 494 0030 4FF09040 		mov	r0, #1207959552
 495 0034 2A49     		ldr	r1, .L33+8
 496 0036 FFF7FEFF 		bl	cfg_write_bytes32
 497              	.LVL36:
 386:.\Generated_Source\PSoC5/cyfitter_cfg.c **** 
 387:.\Generated_Source\PSoC5/cyfitter_cfg.c **** 		/* Perform normal device configuration. Order is not critical for these items. */
 388:.\Generated_Source\PSoC5/cyfitter_cfg.c **** 		CYMEMZERO((void CYFAR *)(CYREG_PHUB_CFGMEM0_CFG0), 4u);
 498              		.loc 1 388 0
 499 003a 2A48     		ldr	r0, .L33+12
 500 003c 0421     		movs	r1, #4
 501 003e FFF7FEFF 		bl	CYMEMZERO
 502              	.LVL37:
 389:.\Generated_Source\PSoC5/cyfitter_cfg.c **** 		CYCONFIGCPY((void CYFAR *)(CYREG_PHUB_CFGMEM1_CFG0), (const void CYFAR *)(BS_PHUB_CFGMEM1_VAL), 4
 503              		.loc 1 389 0
 504 0042 2948     		ldr	r0, .L33+16
 505 0044 2949     		ldr	r1, .L33+20
 506 0046 0422     		movs	r2, #4
 507 0048 FFF7FEFF 		bl	CYCONFIGCPY
 508              	.LVL38:
 390:.\Generated_Source\PSoC5/cyfitter_cfg.c **** 
 391:.\Generated_Source\PSoC5/cyfitter_cfg.c **** 		/* Enable digital routing */
 392:.\Generated_Source\PSoC5/cyfitter_cfg.c **** 		CY_SET_XTND_REG8((void CYFAR *)CYREG_BCTL0_BANK_CTL, CY_GET_XTND_REG8((void CYFAR *)CYREG_BCTL0_B
 509              		.loc 1 392 0
 510 004c 284A     		ldr	r2, .L33+24
 511 004e 1378     		ldrb	r3, [r2]	@ zero_extendqisi2
 512 0050 43F00203 		orr	r3, r3, #2
 513 0054 1370     		strb	r3, [r2]
 393:.\Generated_Source\PSoC5/cyfitter_cfg.c **** 		CY_SET_XTND_REG8((void CYFAR *)CYREG_BCTL1_BANK_CTL, CY_GET_XTND_REG8((void CYFAR *)CYREG_BCTL1_B
 514              		.loc 1 393 0
 515 0056 1032     		adds	r2, r2, #16
 516 0058 1378     		ldrb	r3, [r2]	@ zero_extendqisi2
 517 005a 43F00203 		orr	r3, r3, #2
 518 005e 1370     		strb	r3, [r2]
 394:.\Generated_Source\PSoC5/cyfitter_cfg.c **** 
 395:.\Generated_Source\PSoC5/cyfitter_cfg.c **** 		/* Enable UDB array */
 396:.\Generated_Source\PSoC5/cyfitter_cfg.c **** 		CY_SET_XTND_REG8((void CYFAR *)CYREG_PM_ACT_CFG0, CY_GET_XTND_REG8((void CYFAR *)CYREG_PM_ACT_CFG
 519              		.loc 1 396 0
 520 0060 244C     		ldr	r4, .L33+28
 521              	.LVL39:
 522 0062 2378     		ldrb	r3, [r4]	@ zero_extendqisi2
 523 0064 43F04003 		orr	r3, r3, #64
 524 0068 2370     		strb	r3, [r4]
 397:.\Generated_Source\PSoC5/cyfitter_cfg.c **** 		CY_SET_XTND_REG8((void CYFAR *)CYREG_PM_AVAIL_CR2, CY_GET_XTND_REG8((void CYFAR *)CYREG_PM_AVAIL_
 525              		.loc 1 397 0
 526 006a A2F58632 		sub	r2, r2, #68608
 527 006e 513A     		subs	r2, r2, #81
 528 0070 1378     		ldrb	r3, [r2]	@ zero_extendqisi2
 529 0072 43F01003 		orr	r3, r3, #16
 530 0076 1370     		strb	r3, [r2]
ARM GAS  C:\Users\bwil410\AppData\Local\Temp\ccGjxM0v.s 			page 18


 531              	.LBE3:
 398:.\Generated_Source\PSoC5/cyfitter_cfg.c **** 	}
 399:.\Generated_Source\PSoC5/cyfitter_cfg.c **** 
 400:.\Generated_Source\PSoC5/cyfitter_cfg.c **** 
 401:.\Generated_Source\PSoC5/cyfitter_cfg.c **** 	/* Perform second pass device configuration. These items must be configured in specific order afte
 402:.\Generated_Source\PSoC5/cyfitter_cfg.c **** 	CYCONFIGCPY((void CYFAR *)(CYREG_PRT0_DM0), (const void CYFAR *)(BS_IOPINS0_0_VAL), 8u);
 532              		.loc 1 402 0
 533 0078 1F48     		ldr	r0, .L33+32
 534 007a 2049     		ldr	r1, .L33+36
 535 007c 0822     		movs	r2, #8
 536 007e FFF7FEFF 		bl	CYCONFIGCPY
 537              	.LVL40:
 403:.\Generated_Source\PSoC5/cyfitter_cfg.c **** 	CYCONFIGCPY((void CYFAR *)(CYREG_PRT15_DR), (const void CYFAR *)(BS_IOPINS0_8_VAL), 10u);
 538              		.loc 1 403 0
 539 0082 1F48     		ldr	r0, .L33+40
 540 0084 1F49     		ldr	r1, .L33+44
 541 0086 0A22     		movs	r2, #10
 542 0088 FFF7FEFF 		bl	CYCONFIGCPY
 543              	.LVL41:
 404:.\Generated_Source\PSoC5/cyfitter_cfg.c **** 	CYCONFIGCPY((void CYFAR *)(CYREG_PRT1_DM0), (const void CYFAR *)(BS_IOPINS0_1_VAL), 8u);
 544              		.loc 1 404 0
 545 008c 1E48     		ldr	r0, .L33+48
 546 008e 1F49     		ldr	r1, .L33+52
 547 0090 0822     		movs	r2, #8
 548 0092 FFF7FEFF 		bl	CYCONFIGCPY
 549              	.LVL42:
 405:.\Generated_Source\PSoC5/cyfitter_cfg.c **** 	CYCONFIGCPY((void CYFAR *)(CYREG_PRT2_DM0), (const void CYFAR *)(BS_IOPINS0_2_VAL), 8u);
 550              		.loc 1 405 0
 551 0096 1E48     		ldr	r0, .L33+56
 552 0098 1E49     		ldr	r1, .L33+60
 553 009a 0822     		movs	r2, #8
 554 009c FFF7FEFF 		bl	CYCONFIGCPY
 555              	.LVL43:
 406:.\Generated_Source\PSoC5/cyfitter_cfg.c **** 	CYCONFIGCPY((void CYFAR *)(CYREG_PRT3_DM0), (const void CYFAR *)(BS_IOPINS0_3_VAL), 8u);
 556              		.loc 1 406 0
 557 00a0 1D48     		ldr	r0, .L33+64
 558 00a2 1E49     		ldr	r1, .L33+68
 559 00a4 0822     		movs	r2, #8
 560 00a6 FFF7FEFF 		bl	CYCONFIGCPY
 561              	.LVL44:
 407:.\Generated_Source\PSoC5/cyfitter_cfg.c **** 	CY_SET_XTND_REG8((void CYFAR *)(CYREG_B0_P3_U1_CFG27), 0xC4u);
 562              		.loc 1 407 0
 563 00aa C422     		movs	r2, #196
 564 00ac 1C4B     		ldr	r3, .L33+72
 565 00ae 1A70     		strb	r2, [r3]
 408:.\Generated_Source\PSoC5/cyfitter_cfg.c **** 	/* Switch Boost to the precision bandgap reference from its internal reference */
 409:.\Generated_Source\PSoC5/cyfitter_cfg.c **** 	CY_SET_REG8((void CYXDATA *)CYREG_BOOST_CR2, (CY_GET_REG8((void CYXDATA *)CYREG_BOOST_CR2) | 0x08u
 566              		.loc 1 409 0
 567 00b0 1C4A     		ldr	r2, .L33+76
 568 00b2 1378     		ldrb	r3, [r2]	@ zero_extendqisi2
 569 00b4 43F00803 		orr	r3, r3, #8
 570 00b8 1370     		strb	r3, [r2]
 410:.\Generated_Source\PSoC5/cyfitter_cfg.c **** 
 411:.\Generated_Source\PSoC5/cyfitter_cfg.c **** 	/* Set Flash Cycles based on max possible frequency in case a glitch occurs during ClockSetup(). *
 412:.\Generated_Source\PSoC5/cyfitter_cfg.c **** 	CY_SET_XTND_REG8((void CYFAR *)(CYREG_CACHE_CC_CTL), (((CYDEV_INSTRUCT_CACHE_ENABLED) != 0) ? 0x61
 571              		.loc 1 412 0
 572 00ba 1B4D     		ldr	r5, .L33+80
ARM GAS  C:\Users\bwil410\AppData\Local\Temp\ccGjxM0v.s 			page 19


 573 00bc 6123     		movs	r3, #97
 574 00be 2B70     		strb	r3, [r5]
 413:.\Generated_Source\PSoC5/cyfitter_cfg.c **** 	/* Setup clocks based on selections from Clock DWR */
 414:.\Generated_Source\PSoC5/cyfitter_cfg.c **** 	ClockSetup();
 575              		.loc 1 414 0
 576 00c0 FFF7FEFF 		bl	ClockSetup
 577              	.LVL45:
 415:.\Generated_Source\PSoC5/cyfitter_cfg.c **** 	/* Set Flash Cycles based on newly configured 24.00MHz Bus Clock. */
 416:.\Generated_Source\PSoC5/cyfitter_cfg.c **** 	CY_SET_XTND_REG8((void CYFAR *)(CYREG_CACHE_CC_CTL), (((CYDEV_INSTRUCT_CACHE_ENABLED) != 0) ? 0x81
 578              		.loc 1 416 0
 579 00c4 8123     		movs	r3, #129
 580 00c6 2B70     		strb	r3, [r5]
 417:.\Generated_Source\PSoC5/cyfitter_cfg.c **** 
 418:.\Generated_Source\PSoC5/cyfitter_cfg.c **** 	/* Perform basic analog initialization to defaults */
 419:.\Generated_Source\PSoC5/cyfitter_cfg.c **** 	AnalogSetDefault();
 581              		.loc 1 419 0
 582 00c8 FFF7FEFF 		bl	AnalogSetDefault
 583              	.LVL46:
 420:.\Generated_Source\PSoC5/cyfitter_cfg.c **** 
 421:.\Generated_Source\PSoC5/cyfitter_cfg.c **** 	/* Configure alternate active mode */
 422:.\Generated_Source\PSoC5/cyfitter_cfg.c **** 	CYCONFIGCPY((void CYFAR *)CYDEV_PM_STBY_BASE, (const void CYFAR *)CYDEV_PM_ACT_BASE, 14u);
 584              		.loc 1 422 0
 585 00cc 1748     		ldr	r0, .L33+84
 586 00ce 2146     		mov	r1, r4
 587 00d0 0E22     		movs	r2, #14
 588 00d2 FFF7FEFF 		bl	CYCONFIGCPY
 589              	.LVL47:
 590 00d6 38BD     		pop	{r3, r4, r5, pc}
 591              	.L34:
 592              		.align	2
 593              	.L33:
 594 00d8 E8460040 		.word	1073759976
 595 00dc 00000000 		.word	.LANCHOR0
 596 00e0 AC000048 		.word	1207959724
 597 00e4 00760040 		.word	1073772032
 598 00e8 08760040 		.word	1073772040
 599 00ec 58100048 		.word	1207963736
 600 00f0 03500140 		.word	1073827843
 601 00f4 A0430040 		.word	1073759136
 602 00f8 02510040 		.word	1073762562
 603 00fc 2C100048 		.word	1207963692
 604 0100 F0510040 		.word	1073762800
 605 0104 34100048 		.word	1207963700
 606 0108 12510040 		.word	1073762578
 607 010c 40100048 		.word	1207963712
 608 0110 22510040 		.word	1073762594
 609 0114 48100048 		.word	1207963720
 610 0118 32510040 		.word	1073762610
 611 011c 50100048 		.word	1207963728
 612 0120 DB060140 		.word	1073809115
 613 0124 22430040 		.word	1073759010
 614 0128 00480040 		.word	1073760256
 615 012c B0430040 		.word	1073759152
 616              		.cfi_endproc
 617              	.LFE8:
 618              		.size	cyfitter_cfg, .-cyfitter_cfg
 619              		.section	.rodata
ARM GAS  C:\Users\bwil410\AppData\Local\Temp\ccGjxM0v.s 			page 20


 620              		.align	2
 621              		.set	.LANCHOR0,. + 0
 622              		.type	cfg_memset_list.4880, %object
 623              		.size	cfg_memset_list.4880, 42
 624              	cfg_memset_list.4880:
 625 0000 40510040 		.word	1073762624
 626 0004 3000     		.short	48
 627 0006 C0510040 		.4byte	1073762752
 628 000a 1000     		.short	16
 629 000c 00000140 		.word	1073807360
 630 0010 0010     		.short	4096
 631 0012 00140140 		.4byte	1073812480
 632 0016 0008     		.short	2048
 633 0018 00400140 		.word	1073823744
 634 001c 000A     		.short	2560
 635 001e 004C0140 		.4byte	1073826816
 636 0022 0002     		.short	512
 637 0024 00500140 		.word	1073827840
 638 0028 2000     		.short	32
 639 002a 0000     		.text
 640              	.Letext0:
 641              		.file 2 "c:\\program files (x86)\\cypress\\psoc creator\\3.3\\psoc creator\\import\\gnu\\arm\\4.9.
 642              		.file 3 ".\\Generated_Source\\PSoC5\\cytypes.h"
 643              		.file 4 ".\\Generated_Source\\PSoC5\\CyLib.h"