ARM GAS  C:\Users\bwil410\AppData\Local\Temp\cczuyAdM.s 			page 1


   1              		.syntax unified
   2              		.cpu cortex-m3
   3              		.fpu softvfp
   4              		.eabi_attribute 20, 1
   5              		.eabi_attribute 21, 1
   6              		.eabi_attribute 23, 3
   7              		.eabi_attribute 24, 1
   8              		.eabi_attribute 25, 1
   9              		.eabi_attribute 26, 1
  10              		.eabi_attribute 30, 1
  11              		.eabi_attribute 34, 1
  12              		.eabi_attribute 18, 4
  13              		.thumb
  14              		.file	"linkedlist.c"
  15              		.text
  16              	.Ltext0:
  17              		.cfi_sections	.debug_frame
  18              		.section	.text.createlinkedlist,"ax",%progbits
  19              		.align	2
  20              		.global	createlinkedlist
  21              		.thumb
  22              		.thumb_func
  23              		.type	createlinkedlist, %function
  24              	createlinkedlist:
  25              	.LFB0:
  26              		.file 1 ".\\linkedlist.c"
   1:.\linkedlist.c **** /* ========================================
   2:.\linkedlist.c ****  *
   3:.\linkedlist.c ****  * Copyright YOUR COMPANY, THE YEAR
   4:.\linkedlist.c ****  * All Rights Reserved
   5:.\linkedlist.c ****  * UNPUBLISHED, LICENSED SOFTWARE.
   6:.\linkedlist.c ****  *
   7:.\linkedlist.c ****  * CONFIDENTIAL AND PROPRIETARY INFORMATION
   8:.\linkedlist.c ****  * WHICH IS THE PROPERTY OF your company.
   9:.\linkedlist.c ****  *
  10:.\linkedlist.c ****  * ========================================
  11:.\linkedlist.c **** */
  12:.\linkedlist.c **** #include <stdlib.h>
  13:.\linkedlist.c **** #include <linkedlist.h>
  14:.\linkedlist.c **** #define INVALID 4294967295
  15:.\linkedlist.c **** 	
  16:.\linkedlist.c **** void createlinkedlist(linkedlist * ll, int data){
  27              		.loc 1 16 0
  28              		.cfi_startproc
  29              		@ args = 0, pretend = 0, frame = 0
  30              		@ frame_needed = 0, uses_anonymous_args = 0
  31              	.LVL0:
  32 0000 38B5     		push	{r3, r4, r5, lr}
  33              		.cfi_def_cfa_offset 16
  34              		.cfi_offset 3, -16
  35              		.cfi_offset 4, -12
  36              		.cfi_offset 5, -8
  37              		.cfi_offset 14, -4
  38 0002 0446     		mov	r4, r0
  39 0004 0D46     		mov	r5, r1
  17:.\linkedlist.c ****         ll->head = NULL;
  40              		.loc 1 17 0
ARM GAS  C:\Users\bwil410\AppData\Local\Temp\cczuyAdM.s 			page 2


  41 0006 0023     		movs	r3, #0
  42 0008 0360     		str	r3, [r0]
  18:.\linkedlist.c **** 		ll->head = malloc(sizeof(node));
  43              		.loc 1 18 0
  44 000a 0820     		movs	r0, #8
  45              	.LVL1:
  46 000c FFF7FEFF 		bl	malloc
  47              	.LVL2:
  48 0010 2060     		str	r0, [r4]
  19:.\linkedlist.c **** 		if (ll->head == NULL){
  49              		.loc 1 19 0
  50 0012 18B1     		cbz	r0, .L1
  20:.\linkedlist.c **** 			return;
  21:.\linkedlist.c **** 		}
  22:.\linkedlist.c **** 		ll->head->data = data;
  51              		.loc 1 22 0
  52 0014 0560     		str	r5, [r0]
  23:.\linkedlist.c **** 		ll->head->next = NULL;
  53              		.loc 1 23 0
  54 0016 2368     		ldr	r3, [r4]
  55 0018 0022     		movs	r2, #0
  56 001a 5A60     		str	r2, [r3, #4]
  57              	.L1:
  58 001c 38BD     		pop	{r3, r4, r5, pc}
  59              		.cfi_endproc
  60              	.LFE0:
  61              		.size	createlinkedlist, .-createlinkedlist
  62 001e 00BF     		.section	.text.addfirst,"ax",%progbits
  63              		.align	2
  64              		.global	addfirst
  65              		.thumb
  66              		.thumb_func
  67              		.type	addfirst, %function
  68              	addfirst:
  69              	.LFB1:
  24:.\linkedlist.c **** }
  25:.\linkedlist.c **** 
  26:.\linkedlist.c **** void addfirst(linkedlist * ll , int data){
  70              		.loc 1 26 0
  71              		.cfi_startproc
  72              		@ args = 0, pretend = 0, frame = 0
  73              		@ frame_needed = 0, uses_anonymous_args = 0
  74              	.LVL3:
  75 0000 38B5     		push	{r3, r4, r5, lr}
  76              		.cfi_def_cfa_offset 16
  77              		.cfi_offset 3, -16
  78              		.cfi_offset 4, -12
  79              		.cfi_offset 5, -8
  80              		.cfi_offset 14, -4
  81 0002 0446     		mov	r4, r0
  82 0004 0D46     		mov	r5, r1
  27:.\linkedlist.c **** 	node *newn;
  28:.\linkedlist.c **** 	newn = malloc(sizeof(node));
  83              		.loc 1 28 0
  84 0006 0820     		movs	r0, #8
  85              	.LVL4:
  86 0008 FFF7FEFF 		bl	malloc
ARM GAS  C:\Users\bwil410\AppData\Local\Temp\cczuyAdM.s 			page 3


  87              	.LVL5:
  29:.\linkedlist.c **** 	if (newn == NULL){
  88              		.loc 1 29 0
  89 000c 18B1     		cbz	r0, .L4
  30:.\linkedlist.c **** 		return;
  31:.\linkedlist.c **** 	}
  32:.\linkedlist.c **** 	newn->data = data;
  90              		.loc 1 32 0
  91 000e 0560     		str	r5, [r0]
  33:.\linkedlist.c **** 	newn->next = ll->head;
  92              		.loc 1 33 0
  93 0010 2268     		ldr	r2, [r4]
  94 0012 4260     		str	r2, [r0, #4]
  34:.\linkedlist.c **** 	ll->head = newn;
  95              		.loc 1 34 0
  96 0014 2060     		str	r0, [r4]
  97              	.L4:
  98 0016 38BD     		pop	{r3, r4, r5, pc}
  99              		.cfi_endproc
 100              	.LFE1:
 101              		.size	addfirst, .-addfirst
 102              		.section	.text.getfirst,"ax",%progbits
 103              		.align	2
 104              		.global	getfirst
 105              		.thumb
 106              		.thumb_func
 107              		.type	getfirst, %function
 108              	getfirst:
 109              	.LFB4:
  35:.\linkedlist.c **** }
  36:.\linkedlist.c **** 
  37:.\linkedlist.c **** void addat(linkedlist * ll, int data , int index){
  38:.\linkedlist.c **** 	if(index == 0){
  39:.\linkedlist.c **** 		addfirst(ll,data);
  40:.\linkedlist.c **** 		return;
  41:.\linkedlist.c **** 	}
  42:.\linkedlist.c **** 	node * previous = nodeat(ll->head, index-1);
  43:.\linkedlist.c **** 	if(previous->data == INVALID){
  44:.\linkedlist.c **** 		return;
  45:.\linkedlist.c **** 	}
  46:.\linkedlist.c **** 	node *newn = malloc(sizeof(node));
  47:.\linkedlist.c **** 	newn->next = previous->next;
  48:.\linkedlist.c **** 	newn->data=data;
  49:.\linkedlist.c **** 	previous->next=newn;
  50:.\linkedlist.c **** }
  51:.\linkedlist.c **** 
  52:.\linkedlist.c **** void addlast(linkedlist * ll,int data){
  53:.\linkedlist.c **** 	node * last = nodelast(ll->head);
  54:.\linkedlist.c **** 	last->next = malloc(sizeof(node));
  55:.\linkedlist.c **** 	last->next->data = data;
  56:.\linkedlist.c **** 	last->next->next = NULL;
  57:.\linkedlist.c **** }
  58:.\linkedlist.c **** 
  59:.\linkedlist.c **** int getfirst(linkedlist * ll){
 110              		.loc 1 59 0
 111              		.cfi_startproc
 112              		@ args = 0, pretend = 0, frame = 0
ARM GAS  C:\Users\bwil410\AppData\Local\Temp\cczuyAdM.s 			page 4


 113              		@ frame_needed = 0, uses_anonymous_args = 0
 114              		@ link register save eliminated.
 115              	.LVL6:
  60:.\linkedlist.c **** 	return ll->head->data;
 116              		.loc 1 60 0
 117 0000 0368     		ldr	r3, [r0]
  61:.\linkedlist.c **** }
 118              		.loc 1 61 0
 119 0002 1868     		ldr	r0, [r3]
 120              	.LVL7:
 121 0004 7047     		bx	lr
 122              		.cfi_endproc
 123              	.LFE4:
 124              		.size	getfirst, .-getfirst
 125 0006 00BF     		.section	.text.removefirst,"ax",%progbits
 126              		.align	2
 127              		.global	removefirst
 128              		.thumb
 129              		.thumb_func
 130              		.type	removefirst, %function
 131              	removefirst:
 132              	.LFB7:
  62:.\linkedlist.c **** 
  63:.\linkedlist.c **** int getat(linkedlist * ll, int index){
  64:.\linkedlist.c **** 	node * current = nodeat(ll->head, index);
  65:.\linkedlist.c **** 	return current->data;
  66:.\linkedlist.c **** }
  67:.\linkedlist.c **** 
  68:.\linkedlist.c **** int getlast(linkedlist * ll){
  69:.\linkedlist.c **** 	node *last = nodelast(ll->head);
  70:.\linkedlist.c **** 	return last->data;
  71:.\linkedlist.c **** }
  72:.\linkedlist.c **** 
  73:.\linkedlist.c **** void removefirst(linkedlist * ll){
 133              		.loc 1 73 0
 134              		.cfi_startproc
 135              		@ args = 0, pretend = 0, frame = 0
 136              		@ frame_needed = 0, uses_anonymous_args = 0
 137              	.LVL8:
 138 0000 38B5     		push	{r3, r4, r5, lr}
 139              		.cfi_def_cfa_offset 16
 140              		.cfi_offset 3, -16
 141              		.cfi_offset 4, -12
 142              		.cfi_offset 5, -8
 143              		.cfi_offset 14, -4
  74:.\linkedlist.c **** 	node *second = ll->head->next;
 144              		.loc 1 74 0
 145 0002 0368     		ldr	r3, [r0]
 146 0004 5D68     		ldr	r5, [r3, #4]
 147              	.LVL9:
  75:.\linkedlist.c **** 	if (second == NULL){
 148              		.loc 1 75 0
 149 0006 25B1     		cbz	r5, .L8
 150 0008 0446     		mov	r4, r0
  76:.\linkedlist.c **** 		return;
  77:.\linkedlist.c **** 	}
  78:.\linkedlist.c **** 	free(ll->head);
ARM GAS  C:\Users\bwil410\AppData\Local\Temp\cczuyAdM.s 			page 5


 151              		.loc 1 78 0
 152 000a 1846     		mov	r0, r3
 153              	.LVL10:
 154 000c FFF7FEFF 		bl	free
 155              	.LVL11:
  79:.\linkedlist.c **** 	ll->head = second;
 156              		.loc 1 79 0
 157 0010 2560     		str	r5, [r4]
 158              	.LVL12:
 159              	.L8:
 160 0012 38BD     		pop	{r3, r4, r5, pc}
 161              		.cfi_endproc
 162              	.LFE7:
 163              		.size	removefirst, .-removefirst
 164              		.section	.text.nodeat,"ax",%progbits
 165              		.align	2
 166              		.global	nodeat
 167              		.thumb
 168              		.thumb_func
 169              		.type	nodeat, %function
 170              	nodeat:
 171              	.LFB9:
  80:.\linkedlist.c **** }
  81:.\linkedlist.c **** 
  82:.\linkedlist.c **** void removelast(linkedlist * ll){
  83:.\linkedlist.c **** 	if (ll->head->next == NULL){
  84:.\linkedlist.c ****         return;
  85:.\linkedlist.c **** 	}
  86:.\linkedlist.c **** 	node * secondlast = nodesecondlast(ll->head);
  87:.\linkedlist.c **** 	free(secondlast->next);
  88:.\linkedlist.c **** 	secondlast->next = NULL;
  89:.\linkedlist.c **** }
  90:.\linkedlist.c **** 
  91:.\linkedlist.c **** 
  92:.\linkedlist.c **** /*
  93:.\linkedlist.c **** 
  94:.\linkedlist.c **** Helper functions!
  95:.\linkedlist.c **** 
  96:.\linkedlist.c **** */
  97:.\linkedlist.c **** 
  98:.\linkedlist.c **** node * nodeat(node * current, int index){
 172              		.loc 1 98 0
 173              		.cfi_startproc
 174              		@ args = 0, pretend = 0, frame = 0
 175              		@ frame_needed = 0, uses_anonymous_args = 0
 176              		@ link register save eliminated.
 177              	.LVL13:
  99:.\linkedlist.c ****     int i = 0;
 178              		.loc 1 99 0
 179 0000 0023     		movs	r3, #0
 100:.\linkedlist.c **** 	while(i < index){
 180              		.loc 1 100 0
 181 0002 0BE0     		b	.L12
 182              	.LVL14:
 183              	.L15:
 101:.\linkedlist.c **** 		current = current->next;
 184              		.loc 1 101 0
ARM GAS  C:\Users\bwil410\AppData\Local\Temp\cczuyAdM.s 			page 6


 185 0004 4068     		ldr	r0, [r0, #4]
 186              	.LVL15:
 102:.\linkedlist.c **** 		if (current->next == NULL && i != index-1){
 187              		.loc 1 102 0
 188 0006 4268     		ldr	r2, [r0, #4]
 189 0008 3AB9     		cbnz	r2, .L13
 190              		.loc 1 102 0 is_stmt 0 discriminator 1
 191 000a 4A1E     		subs	r2, r1, #1
 192 000c 9A42     		cmp	r2, r3
 193 000e 04D0     		beq	.L13
 194              	.LBB2:
 103:.\linkedlist.c ****             node * invalid;
 104:.\linkedlist.c ****             invalid->data = INVALID;
 195              		.loc 1 104 0 is_stmt 1
 196 0010 0020     		movs	r0, #0
 197              	.LVL16:
 198 0012 4FF0FF33 		mov	r3, #-1
 199              	.LVL17:
 200 0016 0360     		str	r3, [r0]
 105:.\linkedlist.c **** 			return invalid;
 201              		.loc 1 105 0
 202 0018 7047     		bx	lr
 203              	.LVL18:
 204              	.L13:
 205              	.LBE2:
 106:.\linkedlist.c **** 		}
 107:.\linkedlist.c ****         i++;
 206              		.loc 1 107 0
 207 001a 0133     		adds	r3, r3, #1
 208              	.LVL19:
 209              	.L12:
 100:.\linkedlist.c **** 		current = current->next;
 210              		.loc 1 100 0
 211 001c 8B42     		cmp	r3, r1
 212 001e F1DB     		blt	.L15
 108:.\linkedlist.c **** 	}
 109:.\linkedlist.c **** 	return current;
 110:.\linkedlist.c **** }
 213              		.loc 1 110 0
 214 0020 7047     		bx	lr
 215              		.cfi_endproc
 216              	.LFE9:
 217              		.size	nodeat, .-nodeat
 218 0022 00BF     		.section	.text.addat,"ax",%progbits
 219              		.align	2
 220              		.global	addat
 221              		.thumb
 222              		.thumb_func
 223              		.type	addat, %function
 224              	addat:
 225              	.LFB2:
  37:.\linkedlist.c **** 	if(index == 0){
 226              		.loc 1 37 0
 227              		.cfi_startproc
 228              		@ args = 0, pretend = 0, frame = 0
 229              		@ frame_needed = 0, uses_anonymous_args = 0
 230              	.LVL20:
ARM GAS  C:\Users\bwil410\AppData\Local\Temp\cczuyAdM.s 			page 7


 231 0000 38B5     		push	{r3, r4, r5, lr}
 232              		.cfi_def_cfa_offset 16
 233              		.cfi_offset 3, -16
 234              		.cfi_offset 4, -12
 235              		.cfi_offset 5, -8
 236              		.cfi_offset 14, -4
 237 0002 0D46     		mov	r5, r1
  38:.\linkedlist.c **** 		addfirst(ll,data);
 238              		.loc 1 38 0
 239 0004 12B9     		cbnz	r2, .L17
  39:.\linkedlist.c **** 		return;
 240              		.loc 1 39 0
 241 0006 FFF7FEFF 		bl	addfirst
 242              	.LVL21:
  40:.\linkedlist.c **** 	}
 243              		.loc 1 40 0
 244 000a 38BD     		pop	{r3, r4, r5, pc}
 245              	.LVL22:
 246              	.L17:
  42:.\linkedlist.c **** 	if(previous->data == INVALID){
 247              		.loc 1 42 0
 248 000c 0068     		ldr	r0, [r0]
 249              	.LVL23:
 250 000e 511E     		subs	r1, r2, #1
 251              	.LVL24:
 252 0010 FFF7FEFF 		bl	nodeat
 253              	.LVL25:
 254 0014 0446     		mov	r4, r0
 255              	.LVL26:
  43:.\linkedlist.c **** 		return;
 256              		.loc 1 43 0
 257 0016 0368     		ldr	r3, [r0]
 258 0018 B3F1FF3F 		cmp	r3, #-1
 259 001c 06D0     		beq	.L16
  46:.\linkedlist.c **** 	newn->next = previous->next;
 260              		.loc 1 46 0
 261 001e 0820     		movs	r0, #8
 262              	.LVL27:
 263 0020 FFF7FEFF 		bl	malloc
 264              	.LVL28:
  47:.\linkedlist.c **** 	newn->data=data;
 265              		.loc 1 47 0
 266 0024 6368     		ldr	r3, [r4, #4]
 267 0026 4360     		str	r3, [r0, #4]
  48:.\linkedlist.c **** 	previous->next=newn;
 268              		.loc 1 48 0
 269 0028 0560     		str	r5, [r0]
  49:.\linkedlist.c **** }
 270              		.loc 1 49 0
 271 002a 6060     		str	r0, [r4, #4]
 272              	.LVL29:
 273              	.L16:
 274 002c 38BD     		pop	{r3, r4, r5, pc}
 275              		.cfi_endproc
 276              	.LFE2:
 277              		.size	addat, .-addat
 278 002e 00BF     		.section	.text.getat,"ax",%progbits
ARM GAS  C:\Users\bwil410\AppData\Local\Temp\cczuyAdM.s 			page 8


 279              		.align	2
 280              		.global	getat
 281              		.thumb
 282              		.thumb_func
 283              		.type	getat, %function
 284              	getat:
 285              	.LFB5:
  63:.\linkedlist.c **** 	node * current = nodeat(ll->head, index);
 286              		.loc 1 63 0
 287              		.cfi_startproc
 288              		@ args = 0, pretend = 0, frame = 0
 289              		@ frame_needed = 0, uses_anonymous_args = 0
 290              	.LVL30:
 291 0000 08B5     		push	{r3, lr}
 292              		.cfi_def_cfa_offset 8
 293              		.cfi_offset 3, -8
 294              		.cfi_offset 14, -4
  64:.\linkedlist.c **** 	return current->data;
 295              		.loc 1 64 0
 296 0002 0068     		ldr	r0, [r0]
 297              	.LVL31:
 298 0004 FFF7FEFF 		bl	nodeat
 299              	.LVL32:
  66:.\linkedlist.c **** 
 300              		.loc 1 66 0
 301 0008 0068     		ldr	r0, [r0]
 302              	.LVL33:
 303 000a 08BD     		pop	{r3, pc}
 304              		.cfi_endproc
 305              	.LFE5:
 306              		.size	getat, .-getat
 307              		.section	.text.nodesecondlast,"ax",%progbits
 308              		.align	2
 309              		.global	nodesecondlast
 310              		.thumb
 311              		.thumb_func
 312              		.type	nodesecondlast, %function
 313              	nodesecondlast:
 314              	.LFB10:
 111:.\linkedlist.c **** 
 112:.\linkedlist.c **** node * nodesecondlast(node * current){
 315              		.loc 1 112 0
 316              		.cfi_startproc
 317              		@ args = 0, pretend = 0, frame = 0
 318              		@ frame_needed = 0, uses_anonymous_args = 0
 319              		@ link register save eliminated.
 320              	.LVL34:
 113:.\linkedlist.c **** 	while(current->next->next != NULL){
 321              		.loc 1 113 0
 322 0000 00E0     		b	.L23
 323              	.L24:
 114:.\linkedlist.c **** 		current = current->next;
 324              		.loc 1 114 0
 325 0002 1846     		mov	r0, r3
 326              	.LVL35:
 327              	.L23:
 113:.\linkedlist.c **** 	while(current->next->next != NULL){
ARM GAS  C:\Users\bwil410\AppData\Local\Temp\cczuyAdM.s 			page 9


 328              		.loc 1 113 0
 329 0004 4368     		ldr	r3, [r0, #4]
 330 0006 5A68     		ldr	r2, [r3, #4]
 331 0008 002A     		cmp	r2, #0
 332 000a FAD1     		bne	.L24
 115:.\linkedlist.c **** 	}
 116:.\linkedlist.c **** 	return current;
 117:.\linkedlist.c **** }
 333              		.loc 1 117 0
 334 000c 7047     		bx	lr
 335              		.cfi_endproc
 336              	.LFE10:
 337              		.size	nodesecondlast, .-nodesecondlast
 338 000e 00BF     		.section	.text.removelast,"ax",%progbits
 339              		.align	2
 340              		.global	removelast
 341              		.thumb
 342              		.thumb_func
 343              		.type	removelast, %function
 344              	removelast:
 345              	.LFB8:
  82:.\linkedlist.c **** 	if (ll->head->next == NULL){
 346              		.loc 1 82 0
 347              		.cfi_startproc
 348              		@ args = 0, pretend = 0, frame = 0
 349              		@ frame_needed = 0, uses_anonymous_args = 0
 350              	.LVL36:
  83:.\linkedlist.c ****         return;
 351              		.loc 1 83 0
 352 0000 0068     		ldr	r0, [r0]
 353              	.LVL37:
 354 0002 4368     		ldr	r3, [r0, #4]
 355 0004 4BB1     		cbz	r3, .L28
  82:.\linkedlist.c **** 	if (ll->head->next == NULL){
 356              		.loc 1 82 0
 357 0006 10B5     		push	{r4, lr}
 358              		.cfi_def_cfa_offset 8
 359              		.cfi_offset 4, -8
 360              		.cfi_offset 14, -4
  86:.\linkedlist.c **** 	free(secondlast->next);
 361              		.loc 1 86 0
 362 0008 FFF7FEFF 		bl	nodesecondlast
 363              	.LVL38:
 364 000c 0446     		mov	r4, r0
 365              	.LVL39:
  87:.\linkedlist.c **** 	secondlast->next = NULL;
 366              		.loc 1 87 0
 367 000e 4068     		ldr	r0, [r0, #4]
 368              	.LVL40:
 369 0010 FFF7FEFF 		bl	free
 370              	.LVL41:
  88:.\linkedlist.c **** }
 371              		.loc 1 88 0
 372 0014 0023     		movs	r3, #0
 373 0016 6360     		str	r3, [r4, #4]
 374 0018 10BD     		pop	{r4, pc}
 375              	.LVL42:
ARM GAS  C:\Users\bwil410\AppData\Local\Temp\cczuyAdM.s 			page 10


 376              	.L28:
 377              		.cfi_def_cfa_offset 0
 378              		.cfi_restore 4
 379              		.cfi_restore 14
 380 001a 7047     		bx	lr
 381              		.cfi_endproc
 382              	.LFE8:
 383              		.size	removelast, .-removelast
 384              		.section	.text.nodelast,"ax",%progbits
 385              		.align	2
 386              		.global	nodelast
 387              		.thumb
 388              		.thumb_func
 389              		.type	nodelast, %function
 390              	nodelast:
 391              	.LFB11:
 118:.\linkedlist.c **** 
 119:.\linkedlist.c **** node * nodelast(node * current){
 392              		.loc 1 119 0
 393              		.cfi_startproc
 394              		@ args = 0, pretend = 0, frame = 0
 395              		@ frame_needed = 0, uses_anonymous_args = 0
 396              		@ link register save eliminated.
 397              	.LVL43:
 120:.\linkedlist.c **** 	while(current->next != NULL){
 398              		.loc 1 120 0
 399 0000 00E0     		b	.L30
 400              	.L31:
 121:.\linkedlist.c **** 		current = current->next;
 401              		.loc 1 121 0
 402 0002 1846     		mov	r0, r3
 403              	.LVL44:
 404              	.L30:
 120:.\linkedlist.c **** 	while(current->next != NULL){
 405              		.loc 1 120 0
 406 0004 4368     		ldr	r3, [r0, #4]
 407 0006 002B     		cmp	r3, #0
 408 0008 FBD1     		bne	.L31
 122:.\linkedlist.c **** 	}
 123:.\linkedlist.c **** 	return current;
 124:.\linkedlist.c **** }
 409              		.loc 1 124 0
 410 000a 7047     		bx	lr
 411              		.cfi_endproc
 412              	.LFE11:
 413              		.size	nodelast, .-nodelast
 414              		.section	.text.addlast,"ax",%progbits
 415              		.align	2
 416              		.global	addlast
 417              		.thumb
 418              		.thumb_func
 419              		.type	addlast, %function
 420              	addlast:
 421              	.LFB3:
  52:.\linkedlist.c **** 	node * last = nodelast(ll->head);
 422              		.loc 1 52 0
 423              		.cfi_startproc
ARM GAS  C:\Users\bwil410\AppData\Local\Temp\cczuyAdM.s 			page 11


 424              		@ args = 0, pretend = 0, frame = 0
 425              		@ frame_needed = 0, uses_anonymous_args = 0
 426              	.LVL45:
 427 0000 38B5     		push	{r3, r4, r5, lr}
 428              		.cfi_def_cfa_offset 16
 429              		.cfi_offset 3, -16
 430              		.cfi_offset 4, -12
 431              		.cfi_offset 5, -8
 432              		.cfi_offset 14, -4
 433 0002 0D46     		mov	r5, r1
  53:.\linkedlist.c **** 	last->next = malloc(sizeof(node));
 434              		.loc 1 53 0
 435 0004 0068     		ldr	r0, [r0]
 436              	.LVL46:
 437 0006 FFF7FEFF 		bl	nodelast
 438              	.LVL47:
 439 000a 0446     		mov	r4, r0
 440              	.LVL48:
  54:.\linkedlist.c **** 	last->next->data = data;
 441              		.loc 1 54 0
 442 000c 0820     		movs	r0, #8
 443              	.LVL49:
 444 000e FFF7FEFF 		bl	malloc
 445              	.LVL50:
 446 0012 6060     		str	r0, [r4, #4]
  55:.\linkedlist.c **** 	last->next->next = NULL;
 447              		.loc 1 55 0
 448 0014 0560     		str	r5, [r0]
  56:.\linkedlist.c **** }
 449              		.loc 1 56 0
 450 0016 6368     		ldr	r3, [r4, #4]
 451 0018 0022     		movs	r2, #0
 452 001a 5A60     		str	r2, [r3, #4]
 453 001c 38BD     		pop	{r3, r4, r5, pc}
 454              		.cfi_endproc
 455              	.LFE3:
 456              		.size	addlast, .-addlast
 457 001e 00BF     		.section	.text.getlast,"ax",%progbits
 458              		.align	2
 459              		.global	getlast
 460              		.thumb
 461              		.thumb_func
 462              		.type	getlast, %function
 463              	getlast:
 464              	.LFB6:
  68:.\linkedlist.c **** 	node *last = nodelast(ll->head);
 465              		.loc 1 68 0
 466              		.cfi_startproc
 467              		@ args = 0, pretend = 0, frame = 0
 468              		@ frame_needed = 0, uses_anonymous_args = 0
 469              	.LVL51:
 470 0000 08B5     		push	{r3, lr}
 471              		.cfi_def_cfa_offset 8
 472              		.cfi_offset 3, -8
 473              		.cfi_offset 14, -4
  69:.\linkedlist.c **** 	return last->data;
 474              		.loc 1 69 0
ARM GAS  C:\Users\bwil410\AppData\Local\Temp\cczuyAdM.s 			page 12


 475 0002 0068     		ldr	r0, [r0]
 476              	.LVL52:
 477 0004 FFF7FEFF 		bl	nodelast
 478              	.LVL53:
  71:.\linkedlist.c **** 
 479              		.loc 1 71 0
 480 0008 0068     		ldr	r0, [r0]
 481              	.LVL54:
 482 000a 08BD     		pop	{r3, pc}
 483              		.cfi_endproc
 484              	.LFE6:
 485              		.size	getlast, .-getlast
 486              		.section	.text.printlist,"ax",%progbits
 487              		.align	2
 488              		.global	printlist
 489              		.thumb
 490              		.thumb_func
 491              		.type	printlist, %function
 492              	printlist:
 493              	.LFB12:
 125:.\linkedlist.c **** 
 126:.\linkedlist.c **** 
 127:.\linkedlist.c **** /*
 128:.\linkedlist.c ****     Test Methods
 129:.\linkedlist.c **** */
 130:.\linkedlist.c **** 
 131:.\linkedlist.c **** void printlist(linkedlist * ll){
 494              		.loc 1 131 0
 495              		.cfi_startproc
 496              		@ args = 0, pretend = 0, frame = 0
 497              		@ frame_needed = 0, uses_anonymous_args = 0
 498              	.LVL55:
 499 0000 10B5     		push	{r4, lr}
 500              		.cfi_def_cfa_offset 8
 501              		.cfi_offset 4, -8
 502              		.cfi_offset 14, -4
 132:.\linkedlist.c **** 	node *current = ll->head;
 503              		.loc 1 132 0
 504 0002 0468     		ldr	r4, [r0]
 505              	.LVL56:
 133:.\linkedlist.c **** 	while(current->next != NULL){
 506              		.loc 1 133 0
 507 0004 06E0     		b	.L37
 508              	.LVL57:
 509              	.L38:
 510              	.LBB3:
 134:.\linkedlist.c **** 		printf(current->data);
 511              		.loc 1 134 0
 512 0006 2068     		ldr	r0, [r4]
 513 0008 FFF7FEFF 		bl	printf
 514              	.LVL58:
 135:.\linkedlist.c **** 		printf("/n");
 515              		.loc 1 135 0
 516 000c 0548     		ldr	r0, .L40
 517 000e FFF7FEFF 		bl	printf
 518              	.LVL59:
 136:.\linkedlist.c **** 		current = current->next;
ARM GAS  C:\Users\bwil410\AppData\Local\Temp\cczuyAdM.s 			page 13


 519              		.loc 1 136 0
 520 0012 6468     		ldr	r4, [r4, #4]
 521              	.LVL60:
 522              	.L37:
 523              	.LBE3:
 133:.\linkedlist.c **** 		printf(current->data);
 524              		.loc 1 133 0
 525 0014 6368     		ldr	r3, [r4, #4]
 526 0016 002B     		cmp	r3, #0
 527 0018 F5D1     		bne	.L38
 137:.\linkedlist.c **** 	}
 138:.\linkedlist.c **** 	printf(current->data);
 528              		.loc 1 138 0
 529 001a 2068     		ldr	r0, [r4]
 530 001c FFF7FEFF 		bl	printf
 531              	.LVL61:
 532 0020 10BD     		pop	{r4, pc}
 533              	.LVL62:
 534              	.L41:
 535 0022 00BF     		.align	2
 536              	.L40:
 537 0024 00000000 		.word	.LC0
 538              		.cfi_endproc
 539              	.LFE12:
 540              		.size	printlist, .-printlist
 541              		.section	.rodata.str1.4,"aMS",%progbits,1
 542              		.align	2
 543              	.LC0:
 544 0000 2F6E00   		.ascii	"/n\000"
 545 0003 00       		.text
 546              	.Letext0:
 547              		.file 2 "./linkedlist.h"
 548              		.file 3 "c:\\program files (x86)\\cypress\\psoc creator\\3.3\\psoc creator\\import\\gnu\\arm\\4.9.
 549              		.file 4 "<built-in>"
 550              		.file 5 "c:\\program files (x86)\\cypress\\psoc creator\\3.3\\psoc creator\\import\\gnu\\arm\\4.9.