ARM GAS  C:\Users\bwil410\AppData\Local\Temp\ccFA27sn.s 			page 1


   1              		.syntax unified
   2              		.cpu cortex-m3
   3              		.fpu softvfp
   4              		.eabi_attribute 20, 1
   5              		.eabi_attribute 21, 1
   6              		.eabi_attribute 23, 3
   7              		.eabi_attribute 24, 1
   8              		.eabi_attribute 25, 1
   9              		.eabi_attribute 26, 1
  10              		.eabi_attribute 30, 1
  11              		.eabi_attribute 34, 1
  12              		.eabi_attribute 18, 4
  13              		.thumb
  14              		.file	"main.c"
  15              		.text
  16              	.Ltext0:
  17              		.cfi_sections	.debug_frame
  18              		.section	.text.Timer_1_Int_Handler,"ax",%progbits
  19              		.align	2
  20              		.global	Timer_1_Int_Handler
  21              		.thumb
  22              		.thumb_func
  23              		.type	Timer_1_Int_Handler, %function
  24              	Timer_1_Int_Handler:
  25              	.LFB64:
  26              		.file 1 ".\\main.c"
   1:.\main.c      **** /* ========================================
   2:.\main.c      ****  *
   3:.\main.c      ****  * Copyright YOUR COMPANY, THE YEAR
   4:.\main.c      ****  * All Rights Reserved
   5:.\main.c      ****  * UNPUBLISHED, LICENSED SOFTWARE.
   6:.\main.c      ****  *
   7:.\main.c      ****  * CONFIDENTIAL AND PROPRIETARY INFORMATION
   8:.\main.c      ****  * WHICH IS THE PROPERTY OF your company.
   9:.\main.c      ****  *
  10:.\main.c      ****  * ========================================
  11:.\main.c      **** */
  12:.\main.c      **** #include <project.h>
  13:.\main.c      **** 
  14:.\main.c      **** 
  15:.\main.c      **** /* Macros */
  16:.\main.c      **** 
  17:.\main.c      **** #define LOW (0)
  18:.\main.c      **** #define HIGH (1)
  19:.\main.c      **** #define OPT_ROTS (10)
  20:.\main.c      **** /* 
  21:.\main.c      **** 
  22:.\main.c      **** OPT_ROTS equation
  23:.\main.c      **** 
  24:.\main.c      **** ((1/(target frequency of ChaA)) x Num of rotations before adjustment) x (input clock 24mhz)
  25:.\main.c      **** 
  26:.\main.c      **** 1/55 x 10 x 24000000
  27:.\main.c      **** */
  28:.\main.c      **** 
  29:.\main.c      **** /* Global Varibles */
  30:.\main.c      ****     int16 sensor1;
  31:.\main.c      ****     int16 batteryVoltage;
ARM GAS  C:\Users\bwil410\AppData\Local\Temp\ccFA27sn.s 			page 2


  32:.\main.c      ****     int16 mVolts;
  33:.\main.c      ****     uint8 dataReady = 0;
  34:.\main.c      ****     uint8 disablePWM = 0;
  35:.\main.c      ****     uint8 pwm1_speed = 89; //hard coded init speeds
  36:.\main.c      ****     uint8 pwm2_speed = 93; //hard coded init speeds
  37:.\main.c      ****     uint8 int_ready = 0;
  38:.\main.c      ****     int8 Count1 = 10;
  39:.\main.c      ****     int8 Count2 = 10;
  40:.\main.c      ****     uint8 led = 0;
  41:.\main.c      **** 
  42:.\main.c      ****     
  43:.\main.c      **** /* HELPER FUNCTIONS */
  44:.\main.c      ****     
  45:.\main.c      **** void moveForward(){
  46:.\main.c      ****     if(Count1 == 0){
  47:.\main.c      ****         
  48:.\main.c      ****     }else if(abs(Count1) > OPT_ROTS){
  49:.\main.c      ****         pwm1_speed--;
  50:.\main.c      ****          
  51:.\main.c      ****     }
  52:.\main.c      ****     else if(abs(Count1) < OPT_ROTS){
  53:.\main.c      ****         pwm1_speed++;
  54:.\main.c      ****          
  55:.\main.c      ****     }else{
  56:.\main.c      ****         
  57:.\main.c      ****     }
  58:.\main.c      ****     
  59:.\main.c      ****     if(Count2 == 0){
  60:.\main.c      ****         
  61:.\main.c      ****     }
  62:.\main.c      ****     else if(abs(Count2) > OPT_ROTS){
  63:.\main.c      ****         pwm2_speed--;
  64:.\main.c      ****     }
  65:.\main.c      ****     else if(abs(Count2) < OPT_ROTS){
  66:.\main.c      ****         pwm2_speed++;
  67:.\main.c      ****     }else{
  68:.\main.c      ****         
  69:.\main.c      ****     }
  70:.\main.c      ****     PWM_1_WriteCompare1(pwm1_speed);
  71:.\main.c      ****     PWM_1_WriteCompare2(pwm1_speed);
  72:.\main.c      ****     PWM_2_WriteCompare1(pwm2_speed);
  73:.\main.c      ****     PWM_2_WriteCompare2(pwm2_speed);
  74:.\main.c      **** }
  75:.\main.c      **** 
  76:.\main.c      **** CY_ISR(Timer_1_Int_Handler)
  77:.\main.c      **** {
  27              		.loc 1 77 0
  28              		.cfi_startproc
  29              		@ args = 0, pretend = 0, frame = 0
  30              		@ frame_needed = 0, uses_anonymous_args = 0
  31 0000 38B5     		push	{r3, r4, r5, lr}
  32              		.cfi_def_cfa_offset 16
  33              		.cfi_offset 3, -16
  34              		.cfi_offset 4, -12
  35              		.cfi_offset 5, -8
  36              		.cfi_offset 14, -4
  78:.\main.c      ****     int_ready = 1;
ARM GAS  C:\Users\bwil410\AppData\Local\Temp\ccFA27sn.s 			page 3


  37              		.loc 1 78 0
  38 0002 124C     		ldr	r4, .L5
  39 0004 0123     		movs	r3, #1
  40 0006 2370     		strb	r3, [r4]
  79:.\main.c      ****     Count1 = QuadDec_1_GetCounter();
  41              		.loc 1 79 0
  42 0008 FFF7FEFF 		bl	QuadDec_1_GetCounter
  43              	.LVL0:
  44 000c 104D     		ldr	r5, .L5+4
  45 000e 2870     		strb	r0, [r5]
  80:.\main.c      ****     Count2 = QuadDec_2_GetCounter();
  46              		.loc 1 80 0
  47 0010 FFF7FEFF 		bl	QuadDec_2_GetCounter
  48              	.LVL1:
  49 0014 6870     		strb	r0, [r5, #1]
  81:.\main.c      ****     QuadDec_1_SetCounter(0);
  50              		.loc 1 81 0
  51 0016 0020     		movs	r0, #0
  52 0018 FFF7FEFF 		bl	QuadDec_1_SetCounter
  53              	.LVL2:
  82:.\main.c      ****     QuadDec_2_SetCounter(0);
  54              		.loc 1 82 0
  55 001c 0020     		movs	r0, #0
  56 001e FFF7FEFF 		bl	QuadDec_2_SetCounter
  57              	.LVL3:
  83:.\main.c      ****     uint8 count = Timer_1_ReadStatusRegister();
  58              		.loc 1 83 0
  59 0022 FFF7FEFF 		bl	Timer_1_ReadStatusRegister
  60              	.LVL4:
  84:.\main.c      ****     Timer_1_STATUS;
  61              		.loc 1 84 0
  62 0026 0B4B     		ldr	r3, .L5+8
  63 0028 1B78     		ldrb	r3, [r3]	@ zero_extendqisi2
  85:.\main.c      ****      if(led == 1){
  64              		.loc 1 85 0
  65 002a 6378     		ldrb	r3, [r4, #1]	@ zero_extendqisi2
  66 002c 012B     		cmp	r3, #1
  67 002e 02D1     		bne	.L2
  86:.\main.c      ****         led = 0;
  68              		.loc 1 86 0
  69 0030 0022     		movs	r2, #0
  70 0032 6270     		strb	r2, [r4, #1]
  71 0034 02E0     		b	.L3
  72              	.L2:
  87:.\main.c      ****     }else{
  88:.\main.c      ****         led = 1;
  73              		.loc 1 88 0
  74 0036 0122     		movs	r2, #1
  75 0038 044B     		ldr	r3, .L5
  76 003a 5A70     		strb	r2, [r3, #1]
  77              	.L3:
  89:.\main.c      ****     }
  90:.\main.c      ****     if(led == 1){
  91:.\main.c      ****         
  92:.\main.c      ****     }else{
  93:.\main.c      ****         
  94:.\main.c      ****     }
ARM GAS  C:\Users\bwil410\AppData\Local\Temp\ccFA27sn.s 			page 4


  95:.\main.c      ****     Timer_1_Init();
  78              		.loc 1 95 0
  79 003c FFF7FEFF 		bl	Timer_1_Init
  80              	.LVL5:
  96:.\main.c      ****     Timer_1_Enable();
  81              		.loc 1 96 0
  82 0040 FFF7FEFF 		bl	Timer_1_Enable
  83              	.LVL6:
  97:.\main.c      ****     Timer_1_Start();
  84              		.loc 1 97 0
  85 0044 FFF7FEFF 		bl	Timer_1_Start
  86              	.LVL7:
  87 0048 38BD     		pop	{r3, r4, r5, pc}
  88              	.L6:
  89 004a 00BF     		.align	2
  90              	.L5:
  91 004c 00000000 		.word	.LANCHOR0
  92 0050 00000000 		.word	.LANCHOR1
  93 0054 6B650040 		.word	1073767787
  94              		.cfi_endproc
  95              	.LFE64:
  96              		.size	Timer_1_Int_Handler, .-Timer_1_Int_Handler
  97              		.section	.text.moveForward,"ax",%progbits
  98              		.align	2
  99              		.global	moveForward
 100              		.thumb
 101              		.thumb_func
 102              		.type	moveForward, %function
 103              	moveForward:
 104              	.LFB63:
  45:.\main.c      ****     if(Count1 == 0){
 105              		.loc 1 45 0
 106              		.cfi_startproc
 107              		@ args = 0, pretend = 0, frame = 0
 108              		@ frame_needed = 0, uses_anonymous_args = 0
 109 0000 10B5     		push	{r4, lr}
 110              		.cfi_def_cfa_offset 8
 111              		.cfi_offset 4, -8
 112              		.cfi_offset 14, -4
  46:.\main.c      ****         
 113              		.loc 1 46 0
 114 0002 1D4B     		ldr	r3, .L13
 115 0004 1B78     		ldrb	r3, [r3]	@ zero_extendqisi2
 116 0006 93B1     		cbz	r3, .L8
  48:.\main.c      ****         pwm1_speed--;
 117              		.loc 1 48 0
 118 0008 5AB2     		sxtb	r2, r3
 119 000a 002A     		cmp	r2, #0
 120 000c B8BF     		it	lt
 121 000e 5242     		rsblt	r2, r2, #0
 122 0010 0A2A     		cmp	r2, #10
 123 0012 04DD     		ble	.L9
  49:.\main.c      ****          
 124              		.loc 1 49 0
 125 0014 184A     		ldr	r2, .L13
 126 0016 9378     		ldrb	r3, [r2, #2]	@ zero_extendqisi2
 127 0018 013B     		subs	r3, r3, #1
ARM GAS  C:\Users\bwil410\AppData\Local\Temp\ccFA27sn.s 			page 5


 128 001a 9370     		strb	r3, [r2, #2]
 129 001c 07E0     		b	.L8
 130              	.L9:
  52:.\main.c      ****         pwm1_speed++;
 131              		.loc 1 52 0
 132 001e 0933     		adds	r3, r3, #9
 133 0020 DBB2     		uxtb	r3, r3
 134 0022 122B     		cmp	r3, #18
 135 0024 03D8     		bhi	.L8
  53:.\main.c      ****          
 136              		.loc 1 53 0
 137 0026 144A     		ldr	r2, .L13
 138 0028 9378     		ldrb	r3, [r2, #2]	@ zero_extendqisi2
 139 002a 0133     		adds	r3, r3, #1
 140 002c 9370     		strb	r3, [r2, #2]
 141              	.L8:
  59:.\main.c      ****         
 142              		.loc 1 59 0
 143 002e 124B     		ldr	r3, .L13
 144 0030 5B78     		ldrb	r3, [r3, #1]	@ zero_extendqisi2
 145 0032 93B1     		cbz	r3, .L10
  62:.\main.c      ****         pwm2_speed--;
 146              		.loc 1 62 0
 147 0034 5AB2     		sxtb	r2, r3
 148 0036 002A     		cmp	r2, #0
 149 0038 B8BF     		it	lt
 150 003a 5242     		rsblt	r2, r2, #0
 151 003c 0A2A     		cmp	r2, #10
 152 003e 04DD     		ble	.L11
  63:.\main.c      ****     }
 153              		.loc 1 63 0
 154 0040 0D4A     		ldr	r2, .L13
 155 0042 D378     		ldrb	r3, [r2, #3]	@ zero_extendqisi2
 156 0044 013B     		subs	r3, r3, #1
 157 0046 D370     		strb	r3, [r2, #3]
 158 0048 07E0     		b	.L10
 159              	.L11:
  65:.\main.c      ****         pwm2_speed++;
 160              		.loc 1 65 0
 161 004a 0933     		adds	r3, r3, #9
 162 004c DBB2     		uxtb	r3, r3
 163 004e 122B     		cmp	r3, #18
 164 0050 03D8     		bhi	.L10
  66:.\main.c      ****     }else{
 165              		.loc 1 66 0
 166 0052 094A     		ldr	r2, .L13
 167 0054 D378     		ldrb	r3, [r2, #3]	@ zero_extendqisi2
 168 0056 0133     		adds	r3, r3, #1
 169 0058 D370     		strb	r3, [r2, #3]
 170              	.L10:
  70:.\main.c      ****     PWM_1_WriteCompare2(pwm1_speed);
 171              		.loc 1 70 0
 172 005a 074C     		ldr	r4, .L13
 173 005c A078     		ldrb	r0, [r4, #2]	@ zero_extendqisi2
 174 005e FFF7FEFF 		bl	PWM_1_WriteCompare1
 175              	.LVL8:
  71:.\main.c      ****     PWM_2_WriteCompare1(pwm2_speed);
ARM GAS  C:\Users\bwil410\AppData\Local\Temp\ccFA27sn.s 			page 6


 176              		.loc 1 71 0
 177 0062 A078     		ldrb	r0, [r4, #2]	@ zero_extendqisi2
 178 0064 FFF7FEFF 		bl	PWM_1_WriteCompare2
 179              	.LVL9:
  72:.\main.c      ****     PWM_2_WriteCompare2(pwm2_speed);
 180              		.loc 1 72 0
 181 0068 E078     		ldrb	r0, [r4, #3]	@ zero_extendqisi2
 182 006a FFF7FEFF 		bl	PWM_2_WriteCompare1
 183              	.LVL10:
  73:.\main.c      **** }
 184              		.loc 1 73 0
 185 006e E078     		ldrb	r0, [r4, #3]	@ zero_extendqisi2
 186 0070 FFF7FEFF 		bl	PWM_2_WriteCompare2
 187              	.LVL11:
 188 0074 10BD     		pop	{r4, pc}
 189              	.L14:
 190 0076 00BF     		.align	2
 191              	.L13:
 192 0078 00000000 		.word	.LANCHOR1
 193              		.cfi_endproc
 194              	.LFE63:
 195              		.size	moveForward, .-moveForward
 196              		.section	.text.main,"ax",%progbits
 197              		.align	2
 198              		.global	main
 199              		.thumb
 200              		.thumb_func
 201              		.type	main, %function
 202              	main:
 203              	.LFB65:
  98:.\main.c      **** }
  99:.\main.c      ****     
 100:.\main.c      **** /* MAIN */
 101:.\main.c      **** 
 102:.\main.c      **** int main()
 103:.\main.c      **** {
 204              		.loc 1 103 0
 205              		.cfi_startproc
 206              		@ Volatile: function does not return.
 207              		@ args = 0, pretend = 0, frame = 0
 208              		@ frame_needed = 0, uses_anonymous_args = 0
 209 0000 08B5     		push	{r3, lr}
 210              		.cfi_def_cfa_offset 8
 211              		.cfi_offset 3, -8
 212              		.cfi_offset 14, -4
 104:.\main.c      ****     /* Enable global interrupts. */
 105:.\main.c      ****     CyGlobalIntEnable; 
 213              		.loc 1 105 0
 214              	@ 105 ".\main.c" 1
 215 0002 62B6     		CPSIE   i
 216              	@ 0 "" 2
 106:.\main.c      ****     
 107:.\main.c      ****     
 108:.\main.c      ****     //Practical Test Modes
 109:.\main.c      ****     
 110:.\main.c      ****     //***************************************
 111:.\main.c      ****     QuadDec_1_Start();
ARM GAS  C:\Users\bwil410\AppData\Local\Temp\ccFA27sn.s 			page 7


 217              		.loc 1 111 0
 218              		.thumb
 219 0004 FFF7FEFF 		bl	QuadDec_1_Start
 220              	.LVL12:
 112:.\main.c      ****     QuadDec_2_Start();
 221              		.loc 1 112 0
 222 0008 FFF7FEFF 		bl	QuadDec_2_Start
 223              	.LVL13:
 113:.\main.c      ****     ADC_SAR_1_Enable();
 224              		.loc 1 113 0
 225 000c FFF7FEFF 		bl	ADC_SAR_1_Enable
 226              	.LVL14:
 114:.\main.c      ****     ADC_SAR_1_Start();
 227              		.loc 1 114 0
 228 0010 FFF7FEFF 		bl	ADC_SAR_1_Start
 229              	.LVL15:
 115:.\main.c      ****     ADC_SAR_1_IRQ_Enable();
 230              		.loc 1 115 0
 231 0014 FFF7FEFF 		bl	ADC_SAR_1_IRQ_Enable
 232              	.LVL16:
 116:.\main.c      ****     ADC_SAR_1_StartConvert();
 233              		.loc 1 116 0
 234 0018 FFF7FEFF 		bl	ADC_SAR_1_StartConvert
 235              	.LVL17:
 117:.\main.c      ****     ADC_SAR_Seq_1_Start();
 236              		.loc 1 117 0
 237 001c FFF7FEFF 		bl	ADC_SAR_Seq_1_Start
 238              	.LVL18:
 118:.\main.c      ****     ADC_SAR_Seq_1_IRQ_Enable();
 239              		.loc 1 118 0
 240 0020 FFF7FEFF 		bl	ADC_SAR_Seq_1_IRQ_Enable
 241              	.LVL19:
 119:.\main.c      ****     ADC_SAR_Seq_1_StartConvert();
 242              		.loc 1 119 0
 243 0024 FFF7FEFF 		bl	ADC_SAR_Seq_1_StartConvert
 244              	.LVL20:
 120:.\main.c      ****     PWM_1_Start();
 245              		.loc 1 120 0
 246 0028 FFF7FEFF 		bl	PWM_1_Start
 247              	.LVL21:
 121:.\main.c      ****     PWM_2_Start();
 248              		.loc 1 121 0
 249 002c FFF7FEFF 		bl	PWM_2_Start
 250              	.LVL22:
 122:.\main.c      ****     Timer_1_Enable();
 251              		.loc 1 122 0
 252 0030 FFF7FEFF 		bl	Timer_1_Enable
 253              	.LVL23:
 123:.\main.c      ****     Timer_1_Start();
 254              		.loc 1 123 0
 255 0034 FFF7FEFF 		bl	Timer_1_Start
 256              	.LVL24:
 124:.\main.c      ****     isr_1_StartEx(Timer_1_Int_Handler);
 257              		.loc 1 124 0
 258 0038 2848     		ldr	r0, .L22
 259 003a FFF7FEFF 		bl	isr_1_StartEx
 260              	.LVL25:
ARM GAS  C:\Users\bwil410\AppData\Local\Temp\ccFA27sn.s 			page 8


 125:.\main.c      ****     //PIN MAP//
 126:.\main.c      ****     //ADC Sensor 1 1.5
 127:.\main.c      ****     //ADC BatterVoltage 1.6
 128:.\main.c      ****     //ADC Sensor 2 1.6
 129:.\main.c      ****     //ADC Sensor 3 1.7
 130:.\main.c      ****     //ADC Sensor 4 0.7
 131:.\main.c      ****     //ADC Sensor 5 0.6
 132:.\main.c      ****     //ADCREF 0.2
 133:.\main.c      ****     //PWM1_1 3.0
 134:.\main.c      ****     //PWM1_2 3.1
 135:.\main.c      ****     //PWM2_1 2.5
 136:.\main.c      ****     //Pwm2_2 2.6
 137:.\main.c      ****     //chA1 0.1
 138:.\main.c      ****     //chB1 0.0
 139:.\main.c      ****     //chA2 1.4
 140:.\main.c      ****     //chB2 1.2
 141:.\main.c      ****     //***************************************
 142:.\main.c      ****     
 143:.\main.c      ****     
 144:.\main.c      ****     // init pwm so hard coded speed
 145:.\main.c      ****     PWM_1_WriteCompare1(pwm1_speed);
 261              		.loc 1 145 0
 262 003e 284C     		ldr	r4, .L22+4
 263 0040 A078     		ldrb	r0, [r4, #2]	@ zero_extendqisi2
 264 0042 FFF7FEFF 		bl	PWM_1_WriteCompare1
 265              	.LVL26:
 146:.\main.c      ****     PWM_1_WriteCompare2(pwm1_speed);
 266              		.loc 1 146 0
 267 0046 A078     		ldrb	r0, [r4, #2]	@ zero_extendqisi2
 268 0048 FFF7FEFF 		bl	PWM_1_WriteCompare2
 269              	.LVL27:
 147:.\main.c      ****     PWM_2_WriteCompare1(pwm2_speed);
 270              		.loc 1 147 0
 271 004c E078     		ldrb	r0, [r4, #3]	@ zero_extendqisi2
 272 004e FFF7FEFF 		bl	PWM_2_WriteCompare1
 273              	.LVL28:
 148:.\main.c      ****     PWM_2_WriteCompare2(pwm2_speed);
 274              		.loc 1 148 0
 275 0052 E078     		ldrb	r0, [r4, #3]	@ zero_extendqisi2
 276 0054 FFF7FEFF 		bl	PWM_2_WriteCompare2
 277              	.LVL29:
 149:.\main.c      ****     LED_Write(LOW);
 278              		.loc 1 149 0
 279 0058 0020     		movs	r0, #0
 280 005a FFF7FEFF 		bl	LED_Write
 281              	.LVL30:
 282              	.L16:
 150:.\main.c      ****     
 151:.\main.c      ****     for(;;)
 152:.\main.c      ****     {
 153:.\main.c      ****         sensor1 = ADC_SAR_1_GetResult16();
 283              		.loc 1 153 0
 284 005e FFF7FEFF 		bl	ADC_SAR_1_GetResult16
 285              	.LVL31:
 286 0062 204C     		ldr	r4, .L22+8
 287 0064 2080     		strh	r0, [r4]	@ movhi
 154:.\main.c      ****         sensor1 = ADC_SAR_1_CountsTo_mVolts(sensor1); 
ARM GAS  C:\Users\bwil410\AppData\Local\Temp\ccFA27sn.s 			page 9


 288              		.loc 1 154 0
 289 0066 FFF7FEFF 		bl	ADC_SAR_1_CountsTo_mVolts
 290              	.LVL32:
 291 006a 2080     		strh	r0, [r4]	@ movhi
 155:.\main.c      ****         batteryVoltage = ADC_SAR_Seq_1_GetResult16(0);
 292              		.loc 1 155 0
 293 006c 0020     		movs	r0, #0
 294 006e FFF7FEFF 		bl	ADC_SAR_Seq_1_GetResult16
 295              	.LVL33:
 296 0072 1D4C     		ldr	r4, .L22+12
 297 0074 2080     		strh	r0, [r4]	@ movhi
 156:.\main.c      ****         batteryVoltage = ADC_SAR_Seq_1_CountsTo_mVolts(batteryVoltage);
 298              		.loc 1 156 0
 299 0076 FFF7FEFF 		bl	ADC_SAR_Seq_1_CountsTo_mVolts
 300              	.LVL34:
 301 007a 80B2     		uxth	r0, r0
 157:.\main.c      ****         batteryVoltage = batteryVoltage*2;
 302              		.loc 1 157 0
 303 007c 4000     		lsls	r0, r0, #1
 304 007e 80B2     		uxth	r0, r0
 305 0080 2080     		strh	r0, [r4]	@ movhi
 158:.\main.c      ****         if(batteryVoltage > 7500){
 306              		.loc 1 158 0
 307 0082 00B2     		sxth	r0, r0
 308 0084 41F64C53 		movw	r3, #7500
 309 0088 9842     		cmp	r0, r3
 310 008a 03DD     		ble	.L17
 159:.\main.c      ****             LED_Write(HIGH);
 311              		.loc 1 159 0
 312 008c 0120     		movs	r0, #1
 313 008e FFF7FEFF 		bl	LED_Write
 314              	.LVL35:
 315 0092 02E0     		b	.L18
 316              	.L17:
 160:.\main.c      ****         }else{
 161:.\main.c      ****             LED_Write(LOW);
 317              		.loc 1 161 0
 318 0094 0020     		movs	r0, #0
 319 0096 FFF7FEFF 		bl	LED_Write
 320              	.LVL36:
 321              	.L18:
 162:.\main.c      ****         }
 163:.\main.c      ****         if(sensor1 > 2500){
 322              		.loc 1 163 0
 323 009a 124B     		ldr	r3, .L22+8
 324 009c B3F90020 		ldrsh	r2, [r3]
 325 00a0 40F6C413 		movw	r3, #2500
 326 00a4 9A42     		cmp	r2, r3
 327 00a6 09DD     		ble	.L19
 164:.\main.c      ****             if(int_ready ==1){
 328              		.loc 1 164 0
 329 00a8 104B     		ldr	r3, .L22+16
 330 00aa 1B78     		ldrb	r3, [r3]	@ zero_extendqisi2
 331 00ac 012B     		cmp	r3, #1
 332 00ae D6D1     		bne	.L16
 165:.\main.c      ****                
 166:.\main.c      ****                 int_ready = 0;
ARM GAS  C:\Users\bwil410\AppData\Local\Temp\ccFA27sn.s 			page 10


 333              		.loc 1 166 0
 334 00b0 0022     		movs	r2, #0
 335 00b2 0E4B     		ldr	r3, .L22+16
 336 00b4 1A70     		strb	r2, [r3]
 167:.\main.c      ****                 moveForward();
 337              		.loc 1 167 0
 338 00b6 FFF7FEFF 		bl	moveForward
 339              	.LVL37:
 340 00ba D0E7     		b	.L16
 341              	.L19:
 168:.\main.c      ****             }
 169:.\main.c      ****         }else{
 170:.\main.c      ****             PWM_1_WriteCompare1(0);
 342              		.loc 1 170 0
 343 00bc 0020     		movs	r0, #0
 344 00be FFF7FEFF 		bl	PWM_1_WriteCompare1
 345              	.LVL38:
 171:.\main.c      ****             PWM_1_WriteCompare2(0);
 346              		.loc 1 171 0
 347 00c2 0020     		movs	r0, #0
 348 00c4 FFF7FEFF 		bl	PWM_1_WriteCompare2
 349              	.LVL39:
 172:.\main.c      ****             PWM_2_WriteCompare1(0);
 350              		.loc 1 172 0
 351 00c8 0020     		movs	r0, #0
 352 00ca FFF7FEFF 		bl	PWM_2_WriteCompare1
 353              	.LVL40:
 173:.\main.c      ****             PWM_2_WriteCompare2(0);
 354              		.loc 1 173 0
 355 00ce 0020     		movs	r0, #0
 356 00d0 FFF7FEFF 		bl	PWM_2_WriteCompare2
 357              	.LVL41:
 174:.\main.c      ****             disablePWM = 1;
 358              		.loc 1 174 0
 359 00d4 0122     		movs	r2, #1
 360 00d6 054B     		ldr	r3, .L22+16
 361 00d8 9A70     		strb	r2, [r3, #2]
 362 00da C0E7     		b	.L16
 363              	.L23:
 364              		.align	2
 365              	.L22:
 366 00dc 00000000 		.word	Timer_1_Int_Handler
 367 00e0 00000000 		.word	.LANCHOR1
 368 00e4 00000000 		.word	sensor1
 369 00e8 00000000 		.word	batteryVoltage
 370 00ec 00000000 		.word	.LANCHOR0
 371              		.cfi_endproc
 372              	.LFE65:
 373              		.size	main, .-main
 374              		.global	led
 375              		.global	Count2
 376              		.global	Count1
 377              		.global	int_ready
 378              		.global	pwm2_speed
 379              		.global	pwm1_speed
 380              		.global	disablePWM
 381              		.global	dataReady
ARM GAS  C:\Users\bwil410\AppData\Local\Temp\ccFA27sn.s 			page 11


 382              		.comm	mVolts,2,2
 383              		.comm	batteryVoltage,2,2
 384              		.comm	sensor1,2,2
 385              		.data
 386              		.set	.LANCHOR1,. + 0
 387              		.type	Count1, %object
 388              		.size	Count1, 1
 389              	Count1:
 390 0000 0A       		.byte	10
 391              		.type	Count2, %object
 392              		.size	Count2, 1
 393              	Count2:
 394 0001 0A       		.byte	10
 395              		.type	pwm1_speed, %object
 396              		.size	pwm1_speed, 1
 397              	pwm1_speed:
 398 0002 59       		.byte	89
 399              		.type	pwm2_speed, %object
 400              		.size	pwm2_speed, 1
 401              	pwm2_speed:
 402 0003 5D       		.byte	93
 403              		.bss
 404              		.set	.LANCHOR0,. + 0
 405              		.type	int_ready, %object
 406              		.size	int_ready, 1
 407              	int_ready:
 408 0000 00       		.space	1
 409              		.type	led, %object
 410              		.size	led, 1
 411              	led:
 412 0001 00       		.space	1
 413              		.type	disablePWM, %object
 414              		.size	disablePWM, 1
 415              	disablePWM:
 416 0002 00       		.space	1
 417              		.type	dataReady, %object
 418              		.size	dataReady, 1
 419              	dataReady:
 420 0003 00       		.space	1
 421              		.text
 422              	.Letext0:
 423              		.file 2 "c:\\program files (x86)\\cypress\\psoc creator\\3.3\\psoc creator\\import\\gnu\\arm\\4.9.
 424              		.file 3 "c:\\program files (x86)\\cypress\\psoc creator\\3.3\\psoc creator\\import\\gnu\\arm\\4.9.
 425              		.file 4 "Generated_Source\\PSoC5/cytypes.h"
 426              		.file 5 "Generated_Source\\PSoC5/core_cm3.h"
 427              		.file 6 "Generated_Source\\PSoC5/QuadDec_1.h"
 428              		.file 7 "Generated_Source\\PSoC5/QuadDec_2.h"
 429              		.file 8 "Generated_Source\\PSoC5/Timer_1.h"
 430              		.file 9 "Generated_Source\\PSoC5/PWM_1.h"
 431              		.file 10 "Generated_Source\\PSoC5/PWM_2.h"
 432              		.file 11 "Generated_Source\\PSoC5/ADC_SAR_1.h"
 433              		.file 12 "Generated_Source\\PSoC5/ADC_SAR_1_IRQ.h"
 434              		.file 13 "Generated_Source\\PSoC5/ADC_SAR_Seq_1.h"
 435              		.file 14 "Generated_Source\\PSoC5/ADC_SAR_Seq_1_IRQ.h"
 436              		.file 15 "Generated_Source\\PSoC5/isr_1.h"
 437              		.file 16 "Generated_Source\\PSoC5/LED.h"
 438              		.file 17 "<built-in>"
ARM GAS  C:\Users\bwil410\AppData\Local\Temp\ccFA27sn.s 			page 12

