ARM GAS  C:\Users\bwil410\AppData\Local\Temp\ccew9tx2.s 			page 1


   1              		.syntax unified
   2              		.cpu cortex-m3
   3              		.fpu softvfp
   4              		.eabi_attribute 20, 1
   5              		.eabi_attribute 21, 1
   6              		.eabi_attribute 23, 3
   7              		.eabi_attribute 24, 1
   8              		.eabi_attribute 25, 1
   9              		.eabi_attribute 26, 1
  10              		.eabi_attribute 30, 1
  11              		.eabi_attribute 34, 1
  12              		.eabi_attribute 18, 4
  13              		.thumb
  14              		.file	"Timer_2.c"
  15              		.text
  16              	.Ltext0:
  17              		.cfi_sections	.debug_frame
  18              		.section	.text.Timer_2_Enable,"ax",%progbits
  19              		.align	2
  20              		.global	Timer_2_Enable
  21              		.thumb
  22              		.thumb_func
  23              		.type	Timer_2_Enable, %function
  24              	Timer_2_Enable:
  25              	.LFB1:
  26              		.file 1 ".\\Generated_Source\\PSoC5\\Timer_2.c"
   1:.\Generated_Source\PSoC5/Timer_2.c **** /*******************************************************************************
   2:.\Generated_Source\PSoC5/Timer_2.c **** * File Name: Timer_2.c
   3:.\Generated_Source\PSoC5/Timer_2.c **** * Version 2.70
   4:.\Generated_Source\PSoC5/Timer_2.c **** *
   5:.\Generated_Source\PSoC5/Timer_2.c **** * Description:
   6:.\Generated_Source\PSoC5/Timer_2.c **** *  The Timer component consists of a 8, 16, 24 or 32-bit timer with
   7:.\Generated_Source\PSoC5/Timer_2.c **** *  a selectable period between 2 and 2^Width - 1.  The timer may free run
   8:.\Generated_Source\PSoC5/Timer_2.c **** *  or be used as a capture timer as well.  The capture can be initiated
   9:.\Generated_Source\PSoC5/Timer_2.c **** *  by a positive or negative edge signal as well as via software.
  10:.\Generated_Source\PSoC5/Timer_2.c **** *  A trigger input can be programmed to enable the timer on rising edge
  11:.\Generated_Source\PSoC5/Timer_2.c **** *  falling edge, either edge or continous run.
  12:.\Generated_Source\PSoC5/Timer_2.c **** *  Interrupts may be generated due to a terminal count condition
  13:.\Generated_Source\PSoC5/Timer_2.c **** *  or a capture event.
  14:.\Generated_Source\PSoC5/Timer_2.c **** *
  15:.\Generated_Source\PSoC5/Timer_2.c **** * Note:
  16:.\Generated_Source\PSoC5/Timer_2.c **** *
  17:.\Generated_Source\PSoC5/Timer_2.c **** ********************************************************************************
  18:.\Generated_Source\PSoC5/Timer_2.c **** * Copyright 2008-2014, Cypress Semiconductor Corporation.  All rights reserved.
  19:.\Generated_Source\PSoC5/Timer_2.c **** * You may use this file only in accordance with the license, terms, conditions,
  20:.\Generated_Source\PSoC5/Timer_2.c **** * disclaimers, and limitations in the end user license agreement accompanying
  21:.\Generated_Source\PSoC5/Timer_2.c **** * the software package with which this file was provided.
  22:.\Generated_Source\PSoC5/Timer_2.c **** ********************************************************************************/
  23:.\Generated_Source\PSoC5/Timer_2.c **** 
  24:.\Generated_Source\PSoC5/Timer_2.c **** #include "Timer_2.h"
  25:.\Generated_Source\PSoC5/Timer_2.c **** 
  26:.\Generated_Source\PSoC5/Timer_2.c **** uint8 Timer_2_initVar = 0u;
  27:.\Generated_Source\PSoC5/Timer_2.c **** 
  28:.\Generated_Source\PSoC5/Timer_2.c **** 
  29:.\Generated_Source\PSoC5/Timer_2.c **** /*******************************************************************************
  30:.\Generated_Source\PSoC5/Timer_2.c **** * Function Name: Timer_2_Init
  31:.\Generated_Source\PSoC5/Timer_2.c **** ********************************************************************************
ARM GAS  C:\Users\bwil410\AppData\Local\Temp\ccew9tx2.s 			page 2


  32:.\Generated_Source\PSoC5/Timer_2.c **** *
  33:.\Generated_Source\PSoC5/Timer_2.c **** * Summary:
  34:.\Generated_Source\PSoC5/Timer_2.c **** *  Initialize to the schematic state
  35:.\Generated_Source\PSoC5/Timer_2.c **** *
  36:.\Generated_Source\PSoC5/Timer_2.c **** * Parameters:
  37:.\Generated_Source\PSoC5/Timer_2.c **** *  void
  38:.\Generated_Source\PSoC5/Timer_2.c **** *
  39:.\Generated_Source\PSoC5/Timer_2.c **** * Return:
  40:.\Generated_Source\PSoC5/Timer_2.c **** *  void
  41:.\Generated_Source\PSoC5/Timer_2.c **** *
  42:.\Generated_Source\PSoC5/Timer_2.c **** *******************************************************************************/
  43:.\Generated_Source\PSoC5/Timer_2.c **** void Timer_2_Init(void) 
  44:.\Generated_Source\PSoC5/Timer_2.c **** {
  45:.\Generated_Source\PSoC5/Timer_2.c ****     #if(!Timer_2_UsingFixedFunction)
  46:.\Generated_Source\PSoC5/Timer_2.c ****             /* Interrupt State Backup for Critical Region*/
  47:.\Generated_Source\PSoC5/Timer_2.c ****             uint8 Timer_2_interruptState;
  48:.\Generated_Source\PSoC5/Timer_2.c ****     #endif /* Interrupt state back up for Fixed Function only */
  49:.\Generated_Source\PSoC5/Timer_2.c **** 
  50:.\Generated_Source\PSoC5/Timer_2.c ****     #if (Timer_2_UsingFixedFunction)
  51:.\Generated_Source\PSoC5/Timer_2.c ****         /* Clear all bits but the enable bit (if it's already set) for Timer operation */
  52:.\Generated_Source\PSoC5/Timer_2.c ****         Timer_2_CONTROL &= Timer_2_CTRL_ENABLE;
  53:.\Generated_Source\PSoC5/Timer_2.c **** 
  54:.\Generated_Source\PSoC5/Timer_2.c ****         /* Clear the mode bits for continuous run mode */
  55:.\Generated_Source\PSoC5/Timer_2.c ****         #if (CY_PSOC5A)
  56:.\Generated_Source\PSoC5/Timer_2.c ****             Timer_2_CONTROL2 &= ((uint8)(~Timer_2_CTRL_MODE_MASK));
  57:.\Generated_Source\PSoC5/Timer_2.c ****         #endif /* Clear bits in CONTROL2 only in PSOC5A */
  58:.\Generated_Source\PSoC5/Timer_2.c **** 
  59:.\Generated_Source\PSoC5/Timer_2.c ****         #if (CY_PSOC3 || CY_PSOC5LP)
  60:.\Generated_Source\PSoC5/Timer_2.c ****             Timer_2_CONTROL3 &= ((uint8)(~Timer_2_CTRL_MODE_MASK));
  61:.\Generated_Source\PSoC5/Timer_2.c ****         #endif /* CONTROL3 register exists only in PSoC3 OR PSoC5LP */
  62:.\Generated_Source\PSoC5/Timer_2.c **** 
  63:.\Generated_Source\PSoC5/Timer_2.c ****         /* Check if One Shot mode is enabled i.e. RunMode !=0*/
  64:.\Generated_Source\PSoC5/Timer_2.c ****         #if (Timer_2_RunModeUsed != 0x0u)
  65:.\Generated_Source\PSoC5/Timer_2.c ****             /* Set 3rd bit of Control register to enable one shot mode */
  66:.\Generated_Source\PSoC5/Timer_2.c ****             Timer_2_CONTROL |= 0x04u;
  67:.\Generated_Source\PSoC5/Timer_2.c ****         #endif /* One Shot enabled only when RunModeUsed is not Continuous*/
  68:.\Generated_Source\PSoC5/Timer_2.c **** 
  69:.\Generated_Source\PSoC5/Timer_2.c ****         #if (Timer_2_RunModeUsed == 2)
  70:.\Generated_Source\PSoC5/Timer_2.c ****             #if (CY_PSOC5A)
  71:.\Generated_Source\PSoC5/Timer_2.c ****                 /* Set last 2 bits of control2 register if one shot(halt on
  72:.\Generated_Source\PSoC5/Timer_2.c ****                 interrupt) is enabled*/
  73:.\Generated_Source\PSoC5/Timer_2.c ****                 Timer_2_CONTROL2 |= 0x03u;
  74:.\Generated_Source\PSoC5/Timer_2.c ****             #endif /* Set One-Shot Halt on Interrupt bit in CONTROL2 for PSoC5A */
  75:.\Generated_Source\PSoC5/Timer_2.c **** 
  76:.\Generated_Source\PSoC5/Timer_2.c ****             #if (CY_PSOC3 || CY_PSOC5LP)
  77:.\Generated_Source\PSoC5/Timer_2.c ****                 /* Set last 2 bits of control3 register if one shot(halt on
  78:.\Generated_Source\PSoC5/Timer_2.c ****                 interrupt) is enabled*/
  79:.\Generated_Source\PSoC5/Timer_2.c ****                 Timer_2_CONTROL3 |= 0x03u;
  80:.\Generated_Source\PSoC5/Timer_2.c ****             #endif /* Set One-Shot Halt on Interrupt bit in CONTROL3 for PSoC3 or PSoC5LP */
  81:.\Generated_Source\PSoC5/Timer_2.c **** 
  82:.\Generated_Source\PSoC5/Timer_2.c ****         #endif /* Remove section if One Shot Halt on Interrupt is not enabled */
  83:.\Generated_Source\PSoC5/Timer_2.c **** 
  84:.\Generated_Source\PSoC5/Timer_2.c ****         #if (Timer_2_UsingHWEnable != 0)
  85:.\Generated_Source\PSoC5/Timer_2.c ****             #if (CY_PSOC5A)
  86:.\Generated_Source\PSoC5/Timer_2.c ****                 /* Set the default Run Mode of the Timer to Continuous */
  87:.\Generated_Source\PSoC5/Timer_2.c ****                 Timer_2_CONTROL2 |= Timer_2_CTRL_MODE_PULSEWIDTH;
  88:.\Generated_Source\PSoC5/Timer_2.c ****             #endif /* Set Continuous Run Mode in CONTROL2 for PSoC5A */
ARM GAS  C:\Users\bwil410\AppData\Local\Temp\ccew9tx2.s 			page 3


  89:.\Generated_Source\PSoC5/Timer_2.c **** 
  90:.\Generated_Source\PSoC5/Timer_2.c ****             #if (CY_PSOC3 || CY_PSOC5LP)
  91:.\Generated_Source\PSoC5/Timer_2.c ****                 /* Clear and Set ROD and COD bits of CFG2 register */
  92:.\Generated_Source\PSoC5/Timer_2.c ****                 Timer_2_CONTROL3 &= ((uint8)(~Timer_2_CTRL_RCOD_MASK));
  93:.\Generated_Source\PSoC5/Timer_2.c ****                 Timer_2_CONTROL3 |= Timer_2_CTRL_RCOD;
  94:.\Generated_Source\PSoC5/Timer_2.c **** 
  95:.\Generated_Source\PSoC5/Timer_2.c ****                 /* Clear and Enable the HW enable bit in CFG2 register */
  96:.\Generated_Source\PSoC5/Timer_2.c ****                 Timer_2_CONTROL3 &= ((uint8)(~Timer_2_CTRL_ENBL_MASK));
  97:.\Generated_Source\PSoC5/Timer_2.c ****                 Timer_2_CONTROL3 |= Timer_2_CTRL_ENBL;
  98:.\Generated_Source\PSoC5/Timer_2.c **** 
  99:.\Generated_Source\PSoC5/Timer_2.c ****                 /* Set the default Run Mode of the Timer to Continuous */
 100:.\Generated_Source\PSoC5/Timer_2.c ****                 Timer_2_CONTROL3 |= Timer_2_CTRL_MODE_CONTINUOUS;
 101:.\Generated_Source\PSoC5/Timer_2.c ****             #endif /* Set Continuous Run Mode in CONTROL3 for PSoC3ES3 or PSoC5A */
 102:.\Generated_Source\PSoC5/Timer_2.c **** 
 103:.\Generated_Source\PSoC5/Timer_2.c ****         #endif /* Configure Run Mode with hardware enable */
 104:.\Generated_Source\PSoC5/Timer_2.c **** 
 105:.\Generated_Source\PSoC5/Timer_2.c ****         /* Clear and Set SYNCTC and SYNCCMP bits of RT1 register */
 106:.\Generated_Source\PSoC5/Timer_2.c ****         Timer_2_RT1 &= ((uint8)(~Timer_2_RT1_MASK));
 107:.\Generated_Source\PSoC5/Timer_2.c ****         Timer_2_RT1 |= Timer_2_SYNC;
 108:.\Generated_Source\PSoC5/Timer_2.c **** 
 109:.\Generated_Source\PSoC5/Timer_2.c ****         /*Enable DSI Sync all all inputs of the Timer*/
 110:.\Generated_Source\PSoC5/Timer_2.c ****         Timer_2_RT1 &= ((uint8)(~Timer_2_SYNCDSI_MASK));
 111:.\Generated_Source\PSoC5/Timer_2.c ****         Timer_2_RT1 |= Timer_2_SYNCDSI_EN;
 112:.\Generated_Source\PSoC5/Timer_2.c **** 
 113:.\Generated_Source\PSoC5/Timer_2.c ****         /* Set the IRQ to use the status register interrupts */
 114:.\Generated_Source\PSoC5/Timer_2.c ****         Timer_2_CONTROL2 |= Timer_2_CTRL2_IRQ_SEL;
 115:.\Generated_Source\PSoC5/Timer_2.c ****     #endif /* Configuring registers of fixed function implementation */
 116:.\Generated_Source\PSoC5/Timer_2.c **** 
 117:.\Generated_Source\PSoC5/Timer_2.c ****     /* Set Initial values from Configuration */
 118:.\Generated_Source\PSoC5/Timer_2.c ****     Timer_2_WritePeriod(Timer_2_INIT_PERIOD);
 119:.\Generated_Source\PSoC5/Timer_2.c ****     Timer_2_WriteCounter(Timer_2_INIT_PERIOD);
 120:.\Generated_Source\PSoC5/Timer_2.c **** 
 121:.\Generated_Source\PSoC5/Timer_2.c ****     #if (Timer_2_UsingHWCaptureCounter)/* Capture counter is enabled */
 122:.\Generated_Source\PSoC5/Timer_2.c ****         Timer_2_CAPTURE_COUNT_CTRL |= Timer_2_CNTR_ENABLE;
 123:.\Generated_Source\PSoC5/Timer_2.c ****         Timer_2_SetCaptureCount(Timer_2_INIT_CAPTURE_COUNT);
 124:.\Generated_Source\PSoC5/Timer_2.c ****     #endif /* Configure capture counter value */
 125:.\Generated_Source\PSoC5/Timer_2.c **** 
 126:.\Generated_Source\PSoC5/Timer_2.c ****     #if (!Timer_2_UsingFixedFunction)
 127:.\Generated_Source\PSoC5/Timer_2.c ****         #if (Timer_2_SoftwareCaptureMode)
 128:.\Generated_Source\PSoC5/Timer_2.c ****             Timer_2_SetCaptureMode(Timer_2_INIT_CAPTURE_MODE);
 129:.\Generated_Source\PSoC5/Timer_2.c ****         #endif /* Set Capture Mode for UDB implementation if capture mode is software controlled */
 130:.\Generated_Source\PSoC5/Timer_2.c **** 
 131:.\Generated_Source\PSoC5/Timer_2.c ****         #if (Timer_2_SoftwareTriggerMode)
 132:.\Generated_Source\PSoC5/Timer_2.c ****             #if (!Timer_2_UDB_CONTROL_REG_REMOVED)
 133:.\Generated_Source\PSoC5/Timer_2.c ****                 if (0u == (Timer_2_CONTROL & Timer_2__B_TIMER__TM_SOFTWARE))
 134:.\Generated_Source\PSoC5/Timer_2.c ****                 {
 135:.\Generated_Source\PSoC5/Timer_2.c ****                     Timer_2_SetTriggerMode(Timer_2_INIT_TRIGGER_MODE);
 136:.\Generated_Source\PSoC5/Timer_2.c ****                 }
 137:.\Generated_Source\PSoC5/Timer_2.c ****             #endif /* (!Timer_2_UDB_CONTROL_REG_REMOVED) */
 138:.\Generated_Source\PSoC5/Timer_2.c ****         #endif /* Set trigger mode for UDB Implementation if trigger mode is software controlled */
 139:.\Generated_Source\PSoC5/Timer_2.c **** 
 140:.\Generated_Source\PSoC5/Timer_2.c ****         /* CyEnterCriticalRegion and CyExitCriticalRegion are used to mark following region critica
 141:.\Generated_Source\PSoC5/Timer_2.c ****         /* Enter Critical Region*/
 142:.\Generated_Source\PSoC5/Timer_2.c ****         Timer_2_interruptState = CyEnterCriticalSection();
 143:.\Generated_Source\PSoC5/Timer_2.c **** 
 144:.\Generated_Source\PSoC5/Timer_2.c ****         /* Use the interrupt output of the status register for IRQ output */
 145:.\Generated_Source\PSoC5/Timer_2.c ****         Timer_2_STATUS_AUX_CTRL |= Timer_2_STATUS_ACTL_INT_EN_MASK;
ARM GAS  C:\Users\bwil410\AppData\Local\Temp\ccew9tx2.s 			page 4


 146:.\Generated_Source\PSoC5/Timer_2.c **** 
 147:.\Generated_Source\PSoC5/Timer_2.c ****         /* Exit Critical Region*/
 148:.\Generated_Source\PSoC5/Timer_2.c ****         CyExitCriticalSection(Timer_2_interruptState);
 149:.\Generated_Source\PSoC5/Timer_2.c **** 
 150:.\Generated_Source\PSoC5/Timer_2.c ****         #if (Timer_2_EnableTriggerMode)
 151:.\Generated_Source\PSoC5/Timer_2.c ****             Timer_2_EnableTrigger();
 152:.\Generated_Source\PSoC5/Timer_2.c ****         #endif /* Set Trigger enable bit for UDB implementation in the control register*/
 153:.\Generated_Source\PSoC5/Timer_2.c **** 		
 154:.\Generated_Source\PSoC5/Timer_2.c **** 		
 155:.\Generated_Source\PSoC5/Timer_2.c ****         #if (Timer_2_InterruptOnCaptureCount && !Timer_2_UDB_CONTROL_REG_REMOVED)
 156:.\Generated_Source\PSoC5/Timer_2.c ****             Timer_2_SetInterruptCount(Timer_2_INIT_INT_CAPTURE_COUNT);
 157:.\Generated_Source\PSoC5/Timer_2.c ****         #endif /* Set interrupt count in UDB implementation if interrupt count feature is checked.*
 158:.\Generated_Source\PSoC5/Timer_2.c **** 
 159:.\Generated_Source\PSoC5/Timer_2.c ****         Timer_2_ClearFIFO();
 160:.\Generated_Source\PSoC5/Timer_2.c ****     #endif /* Configure additional features of UDB implementation */
 161:.\Generated_Source\PSoC5/Timer_2.c **** 
 162:.\Generated_Source\PSoC5/Timer_2.c ****     Timer_2_SetInterruptMode(Timer_2_INIT_INTERRUPT_MODE);
 163:.\Generated_Source\PSoC5/Timer_2.c **** }
 164:.\Generated_Source\PSoC5/Timer_2.c **** 
 165:.\Generated_Source\PSoC5/Timer_2.c **** 
 166:.\Generated_Source\PSoC5/Timer_2.c **** /*******************************************************************************
 167:.\Generated_Source\PSoC5/Timer_2.c **** * Function Name: Timer_2_Enable
 168:.\Generated_Source\PSoC5/Timer_2.c **** ********************************************************************************
 169:.\Generated_Source\PSoC5/Timer_2.c **** *
 170:.\Generated_Source\PSoC5/Timer_2.c **** * Summary:
 171:.\Generated_Source\PSoC5/Timer_2.c **** *  Enable the Timer
 172:.\Generated_Source\PSoC5/Timer_2.c **** *
 173:.\Generated_Source\PSoC5/Timer_2.c **** * Parameters:
 174:.\Generated_Source\PSoC5/Timer_2.c **** *  void
 175:.\Generated_Source\PSoC5/Timer_2.c **** *
 176:.\Generated_Source\PSoC5/Timer_2.c **** * Return:
 177:.\Generated_Source\PSoC5/Timer_2.c **** *  void
 178:.\Generated_Source\PSoC5/Timer_2.c **** *
 179:.\Generated_Source\PSoC5/Timer_2.c **** *******************************************************************************/
 180:.\Generated_Source\PSoC5/Timer_2.c **** void Timer_2_Enable(void) 
 181:.\Generated_Source\PSoC5/Timer_2.c **** {
  27              		.loc 1 181 0
  28              		.cfi_startproc
  29              		@ args = 0, pretend = 0, frame = 0
  30              		@ frame_needed = 0, uses_anonymous_args = 0
  31              		@ link register save eliminated.
 182:.\Generated_Source\PSoC5/Timer_2.c ****     /* Globally Enable the Fixed Function Block chosen */
 183:.\Generated_Source\PSoC5/Timer_2.c ****     #if (Timer_2_UsingFixedFunction)
 184:.\Generated_Source\PSoC5/Timer_2.c ****         Timer_2_GLOBAL_ENABLE |= Timer_2_BLOCK_EN_MASK;
 185:.\Generated_Source\PSoC5/Timer_2.c ****         Timer_2_GLOBAL_STBY_ENABLE |= Timer_2_BLOCK_STBY_EN_MASK;
 186:.\Generated_Source\PSoC5/Timer_2.c ****     #endif /* Set Enable bit for enabling Fixed function timer*/
 187:.\Generated_Source\PSoC5/Timer_2.c **** 
 188:.\Generated_Source\PSoC5/Timer_2.c ****     /* Remove assignment if control register is removed */
 189:.\Generated_Source\PSoC5/Timer_2.c ****     #if (!Timer_2_UDB_CONTROL_REG_REMOVED || Timer_2_UsingFixedFunction)
 190:.\Generated_Source\PSoC5/Timer_2.c ****         Timer_2_CONTROL |= Timer_2_CTRL_ENABLE;
  32              		.loc 1 190 0
  33 0000 024A     		ldr	r2, .L2
  34 0002 1378     		ldrb	r3, [r2]	@ zero_extendqisi2
  35 0004 43F08003 		orr	r3, r3, #128
  36 0008 1370     		strb	r3, [r2]
  37 000a 7047     		bx	lr
  38              	.L3:
ARM GAS  C:\Users\bwil410\AppData\Local\Temp\ccew9tx2.s 			page 5


  39              		.align	2
  40              	.L2:
  41 000c 78650040 		.word	1073767800
  42              		.cfi_endproc
  43              	.LFE1:
  44              		.size	Timer_2_Enable, .-Timer_2_Enable
  45              		.section	.text.Timer_2_Stop,"ax",%progbits
  46              		.align	2
  47              		.global	Timer_2_Stop
  48              		.thumb
  49              		.thumb_func
  50              		.type	Timer_2_Stop, %function
  51              	Timer_2_Stop:
  52              	.LFB3:
 191:.\Generated_Source\PSoC5/Timer_2.c ****     #endif /* Remove assignment if control register is removed */
 192:.\Generated_Source\PSoC5/Timer_2.c **** }
 193:.\Generated_Source\PSoC5/Timer_2.c **** 
 194:.\Generated_Source\PSoC5/Timer_2.c **** 
 195:.\Generated_Source\PSoC5/Timer_2.c **** /*******************************************************************************
 196:.\Generated_Source\PSoC5/Timer_2.c **** * Function Name: Timer_2_Start
 197:.\Generated_Source\PSoC5/Timer_2.c **** ********************************************************************************
 198:.\Generated_Source\PSoC5/Timer_2.c **** *
 199:.\Generated_Source\PSoC5/Timer_2.c **** * Summary:
 200:.\Generated_Source\PSoC5/Timer_2.c **** *  The start function initializes the timer with the default values, the
 201:.\Generated_Source\PSoC5/Timer_2.c **** *  enables the timerto begin counting.  It does not enable interrupts,
 202:.\Generated_Source\PSoC5/Timer_2.c **** *  the EnableInt command should be called if interrupt generation is required.
 203:.\Generated_Source\PSoC5/Timer_2.c **** *
 204:.\Generated_Source\PSoC5/Timer_2.c **** * Parameters:
 205:.\Generated_Source\PSoC5/Timer_2.c **** *  void
 206:.\Generated_Source\PSoC5/Timer_2.c **** *
 207:.\Generated_Source\PSoC5/Timer_2.c **** * Return:
 208:.\Generated_Source\PSoC5/Timer_2.c **** *  void
 209:.\Generated_Source\PSoC5/Timer_2.c **** *
 210:.\Generated_Source\PSoC5/Timer_2.c **** * Global variables:
 211:.\Generated_Source\PSoC5/Timer_2.c **** *  Timer_2_initVar: Is modified when this function is called for the
 212:.\Generated_Source\PSoC5/Timer_2.c **** *   first time. Is used to ensure that initialization happens only once.
 213:.\Generated_Source\PSoC5/Timer_2.c **** *
 214:.\Generated_Source\PSoC5/Timer_2.c **** *******************************************************************************/
 215:.\Generated_Source\PSoC5/Timer_2.c **** void Timer_2_Start(void) 
 216:.\Generated_Source\PSoC5/Timer_2.c **** {
 217:.\Generated_Source\PSoC5/Timer_2.c ****     if(Timer_2_initVar == 0u)
 218:.\Generated_Source\PSoC5/Timer_2.c ****     {
 219:.\Generated_Source\PSoC5/Timer_2.c ****         Timer_2_Init();
 220:.\Generated_Source\PSoC5/Timer_2.c **** 
 221:.\Generated_Source\PSoC5/Timer_2.c ****         Timer_2_initVar = 1u;   /* Clear this bit for Initialization */
 222:.\Generated_Source\PSoC5/Timer_2.c ****     }
 223:.\Generated_Source\PSoC5/Timer_2.c **** 
 224:.\Generated_Source\PSoC5/Timer_2.c ****     /* Enable the Timer */
 225:.\Generated_Source\PSoC5/Timer_2.c ****     Timer_2_Enable();
 226:.\Generated_Source\PSoC5/Timer_2.c **** }
 227:.\Generated_Source\PSoC5/Timer_2.c **** 
 228:.\Generated_Source\PSoC5/Timer_2.c **** 
 229:.\Generated_Source\PSoC5/Timer_2.c **** /*******************************************************************************
 230:.\Generated_Source\PSoC5/Timer_2.c **** * Function Name: Timer_2_Stop
 231:.\Generated_Source\PSoC5/Timer_2.c **** ********************************************************************************
 232:.\Generated_Source\PSoC5/Timer_2.c **** *
 233:.\Generated_Source\PSoC5/Timer_2.c **** * Summary:
ARM GAS  C:\Users\bwil410\AppData\Local\Temp\ccew9tx2.s 			page 6


 234:.\Generated_Source\PSoC5/Timer_2.c **** *  The stop function halts the timer, but does not change any modes or disable
 235:.\Generated_Source\PSoC5/Timer_2.c **** *  interrupts.
 236:.\Generated_Source\PSoC5/Timer_2.c **** *
 237:.\Generated_Source\PSoC5/Timer_2.c **** * Parameters:
 238:.\Generated_Source\PSoC5/Timer_2.c **** *  void
 239:.\Generated_Source\PSoC5/Timer_2.c **** *
 240:.\Generated_Source\PSoC5/Timer_2.c **** * Return:
 241:.\Generated_Source\PSoC5/Timer_2.c **** *  void
 242:.\Generated_Source\PSoC5/Timer_2.c **** *
 243:.\Generated_Source\PSoC5/Timer_2.c **** * Side Effects: If the Enable mode is set to Hardware only then this function
 244:.\Generated_Source\PSoC5/Timer_2.c **** *               has no effect on the operation of the timer.
 245:.\Generated_Source\PSoC5/Timer_2.c **** *
 246:.\Generated_Source\PSoC5/Timer_2.c **** *******************************************************************************/
 247:.\Generated_Source\PSoC5/Timer_2.c **** void Timer_2_Stop(void) 
 248:.\Generated_Source\PSoC5/Timer_2.c **** {
  53              		.loc 1 248 0
  54              		.cfi_startproc
  55              		@ args = 0, pretend = 0, frame = 0
  56              		@ frame_needed = 0, uses_anonymous_args = 0
  57              		@ link register save eliminated.
 249:.\Generated_Source\PSoC5/Timer_2.c ****     /* Disable Timer */
 250:.\Generated_Source\PSoC5/Timer_2.c ****     #if(!Timer_2_UDB_CONTROL_REG_REMOVED || Timer_2_UsingFixedFunction)
 251:.\Generated_Source\PSoC5/Timer_2.c ****         Timer_2_CONTROL &= ((uint8)(~Timer_2_CTRL_ENABLE));
  58              		.loc 1 251 0
  59 0000 024A     		ldr	r2, .L5
  60 0002 1378     		ldrb	r3, [r2]	@ zero_extendqisi2
  61 0004 03F07F03 		and	r3, r3, #127
  62 0008 1370     		strb	r3, [r2]
  63 000a 7047     		bx	lr
  64              	.L6:
  65              		.align	2
  66              	.L5:
  67 000c 78650040 		.word	1073767800
  68              		.cfi_endproc
  69              	.LFE3:
  70              		.size	Timer_2_Stop, .-Timer_2_Stop
  71              		.section	.text.Timer_2_SetInterruptMode,"ax",%progbits
  72              		.align	2
  73              		.global	Timer_2_SetInterruptMode
  74              		.thumb
  75              		.thumb_func
  76              		.type	Timer_2_SetInterruptMode, %function
  77              	Timer_2_SetInterruptMode:
  78              	.LFB4:
 252:.\Generated_Source\PSoC5/Timer_2.c ****     #endif /* Remove assignment if control register is removed */
 253:.\Generated_Source\PSoC5/Timer_2.c **** 
 254:.\Generated_Source\PSoC5/Timer_2.c ****     /* Globally disable the Fixed Function Block chosen */
 255:.\Generated_Source\PSoC5/Timer_2.c ****     #if (Timer_2_UsingFixedFunction)
 256:.\Generated_Source\PSoC5/Timer_2.c ****         Timer_2_GLOBAL_ENABLE &= ((uint8)(~Timer_2_BLOCK_EN_MASK));
 257:.\Generated_Source\PSoC5/Timer_2.c ****         Timer_2_GLOBAL_STBY_ENABLE &= ((uint8)(~Timer_2_BLOCK_STBY_EN_MASK));
 258:.\Generated_Source\PSoC5/Timer_2.c ****     #endif /* Disable global enable for the Timer Fixed function block to stop the Timer*/
 259:.\Generated_Source\PSoC5/Timer_2.c **** }
 260:.\Generated_Source\PSoC5/Timer_2.c **** 
 261:.\Generated_Source\PSoC5/Timer_2.c **** 
 262:.\Generated_Source\PSoC5/Timer_2.c **** /*******************************************************************************
 263:.\Generated_Source\PSoC5/Timer_2.c **** * Function Name: Timer_2_SetInterruptMode
 264:.\Generated_Source\PSoC5/Timer_2.c **** ********************************************************************************
ARM GAS  C:\Users\bwil410\AppData\Local\Temp\ccew9tx2.s 			page 7


 265:.\Generated_Source\PSoC5/Timer_2.c **** *
 266:.\Generated_Source\PSoC5/Timer_2.c **** * Summary:
 267:.\Generated_Source\PSoC5/Timer_2.c **** *  This function selects which of the interrupt inputs may cause an interrupt.
 268:.\Generated_Source\PSoC5/Timer_2.c **** *  The twosources are caputure and terminal.  One, both or neither may
 269:.\Generated_Source\PSoC5/Timer_2.c **** *  be selected.
 270:.\Generated_Source\PSoC5/Timer_2.c **** *
 271:.\Generated_Source\PSoC5/Timer_2.c **** * Parameters:
 272:.\Generated_Source\PSoC5/Timer_2.c **** *  interruptMode:   This parameter is used to enable interrups on either/or
 273:.\Generated_Source\PSoC5/Timer_2.c **** *                   terminal count or capture.
 274:.\Generated_Source\PSoC5/Timer_2.c **** *
 275:.\Generated_Source\PSoC5/Timer_2.c **** * Return:
 276:.\Generated_Source\PSoC5/Timer_2.c **** *  void
 277:.\Generated_Source\PSoC5/Timer_2.c **** *
 278:.\Generated_Source\PSoC5/Timer_2.c **** *******************************************************************************/
 279:.\Generated_Source\PSoC5/Timer_2.c **** void Timer_2_SetInterruptMode(uint8 interruptMode) 
 280:.\Generated_Source\PSoC5/Timer_2.c **** {
  79              		.loc 1 280 0
  80              		.cfi_startproc
  81              		@ args = 0, pretend = 0, frame = 0
  82              		@ frame_needed = 0, uses_anonymous_args = 0
  83              		@ link register save eliminated.
  84              	.LVL0:
 281:.\Generated_Source\PSoC5/Timer_2.c ****     Timer_2_STATUS_MASK = interruptMode;
  85              		.loc 1 281 0
  86 0000 014B     		ldr	r3, .L8
  87 0002 1870     		strb	r0, [r3]
  88 0004 7047     		bx	lr
  89              	.L9:
  90 0006 00BF     		.align	2
  91              	.L8:
  92 0008 88650040 		.word	1073767816
  93              		.cfi_endproc
  94              	.LFE4:
  95              		.size	Timer_2_SetInterruptMode, .-Timer_2_SetInterruptMode
  96              		.section	.text.Timer_2_SoftwareCapture,"ax",%progbits
  97              		.align	2
  98              		.global	Timer_2_SoftwareCapture
  99              		.thumb
 100              		.thumb_func
 101              		.type	Timer_2_SoftwareCapture, %function
 102              	Timer_2_SoftwareCapture:
 103              	.LFB5:
 282:.\Generated_Source\PSoC5/Timer_2.c **** }
 283:.\Generated_Source\PSoC5/Timer_2.c **** 
 284:.\Generated_Source\PSoC5/Timer_2.c **** 
 285:.\Generated_Source\PSoC5/Timer_2.c **** /*******************************************************************************
 286:.\Generated_Source\PSoC5/Timer_2.c **** * Function Name: Timer_2_SoftwareCapture
 287:.\Generated_Source\PSoC5/Timer_2.c **** ********************************************************************************
 288:.\Generated_Source\PSoC5/Timer_2.c **** *
 289:.\Generated_Source\PSoC5/Timer_2.c **** * Summary:
 290:.\Generated_Source\PSoC5/Timer_2.c **** *  This function forces a capture independent of the capture signal.
 291:.\Generated_Source\PSoC5/Timer_2.c **** *
 292:.\Generated_Source\PSoC5/Timer_2.c **** * Parameters:
 293:.\Generated_Source\PSoC5/Timer_2.c **** *  void
 294:.\Generated_Source\PSoC5/Timer_2.c **** *
 295:.\Generated_Source\PSoC5/Timer_2.c **** * Return:
 296:.\Generated_Source\PSoC5/Timer_2.c **** *  void
ARM GAS  C:\Users\bwil410\AppData\Local\Temp\ccew9tx2.s 			page 8


 297:.\Generated_Source\PSoC5/Timer_2.c **** *
 298:.\Generated_Source\PSoC5/Timer_2.c **** * Side Effects:
 299:.\Generated_Source\PSoC5/Timer_2.c **** *  An existing hardware capture could be overwritten.
 300:.\Generated_Source\PSoC5/Timer_2.c **** *
 301:.\Generated_Source\PSoC5/Timer_2.c **** *******************************************************************************/
 302:.\Generated_Source\PSoC5/Timer_2.c **** void Timer_2_SoftwareCapture(void) 
 303:.\Generated_Source\PSoC5/Timer_2.c **** {
 104              		.loc 1 303 0
 105              		.cfi_startproc
 106              		@ args = 0, pretend = 0, frame = 0
 107              		@ frame_needed = 0, uses_anonymous_args = 0
 108              		@ link register save eliminated.
 304:.\Generated_Source\PSoC5/Timer_2.c ****     /* Generate a software capture by reading the counter register */
 305:.\Generated_Source\PSoC5/Timer_2.c ****     #if(Timer_2_UsingFixedFunction)
 306:.\Generated_Source\PSoC5/Timer_2.c ****         (void)CY_GET_REG16(Timer_2_COUNTER_LSB_PTR);
 307:.\Generated_Source\PSoC5/Timer_2.c ****     #else
 308:.\Generated_Source\PSoC5/Timer_2.c ****         (void)CY_GET_REG8(Timer_2_COUNTER_LSB_PTR_8BIT);
 109              		.loc 1 308 0
 110 0000 014B     		ldr	r3, .L11
 111 0002 1B78     		ldrb	r3, [r3]	@ zero_extendqisi2
 112 0004 7047     		bx	lr
 113              	.L12:
 114 0006 00BF     		.align	2
 115              	.L11:
 116 0008 08650040 		.word	1073767688
 117              		.cfi_endproc
 118              	.LFE5:
 119              		.size	Timer_2_SoftwareCapture, .-Timer_2_SoftwareCapture
 120              		.section	.text.Timer_2_ReadStatusRegister,"ax",%progbits
 121              		.align	2
 122              		.global	Timer_2_ReadStatusRegister
 123              		.thumb
 124              		.thumb_func
 125              		.type	Timer_2_ReadStatusRegister, %function
 126              	Timer_2_ReadStatusRegister:
 127              	.LFB6:
 309:.\Generated_Source\PSoC5/Timer_2.c ****     #endif/* (Timer_2_UsingFixedFunction) */
 310:.\Generated_Source\PSoC5/Timer_2.c ****     /* Capture Data is now in the FIFO */
 311:.\Generated_Source\PSoC5/Timer_2.c **** }
 312:.\Generated_Source\PSoC5/Timer_2.c **** 
 313:.\Generated_Source\PSoC5/Timer_2.c **** 
 314:.\Generated_Source\PSoC5/Timer_2.c **** /*******************************************************************************
 315:.\Generated_Source\PSoC5/Timer_2.c **** * Function Name: Timer_2_ReadStatusRegister
 316:.\Generated_Source\PSoC5/Timer_2.c **** ********************************************************************************
 317:.\Generated_Source\PSoC5/Timer_2.c **** *
 318:.\Generated_Source\PSoC5/Timer_2.c **** * Summary:
 319:.\Generated_Source\PSoC5/Timer_2.c **** *  Reads the status register and returns it's state. This function should use
 320:.\Generated_Source\PSoC5/Timer_2.c **** *  defined types for the bit-field information as the bits in this register may
 321:.\Generated_Source\PSoC5/Timer_2.c **** *  be permuteable.
 322:.\Generated_Source\PSoC5/Timer_2.c **** *
 323:.\Generated_Source\PSoC5/Timer_2.c **** * Parameters:
 324:.\Generated_Source\PSoC5/Timer_2.c **** *  void
 325:.\Generated_Source\PSoC5/Timer_2.c **** *
 326:.\Generated_Source\PSoC5/Timer_2.c **** * Return:
 327:.\Generated_Source\PSoC5/Timer_2.c **** *  The contents of the status register
 328:.\Generated_Source\PSoC5/Timer_2.c **** *
 329:.\Generated_Source\PSoC5/Timer_2.c **** * Side Effects:
ARM GAS  C:\Users\bwil410\AppData\Local\Temp\ccew9tx2.s 			page 9


 330:.\Generated_Source\PSoC5/Timer_2.c **** *  Status register bits may be clear on read.
 331:.\Generated_Source\PSoC5/Timer_2.c **** *
 332:.\Generated_Source\PSoC5/Timer_2.c **** *******************************************************************************/
 333:.\Generated_Source\PSoC5/Timer_2.c **** uint8   Timer_2_ReadStatusRegister(void) 
 334:.\Generated_Source\PSoC5/Timer_2.c **** {
 128              		.loc 1 334 0
 129              		.cfi_startproc
 130              		@ args = 0, pretend = 0, frame = 0
 131              		@ frame_needed = 0, uses_anonymous_args = 0
 132              		@ link register save eliminated.
 335:.\Generated_Source\PSoC5/Timer_2.c ****     return (Timer_2_STATUS);
 133              		.loc 1 335 0
 134 0000 014B     		ldr	r3, .L14
 135 0002 1878     		ldrb	r0, [r3]	@ zero_extendqisi2
 336:.\Generated_Source\PSoC5/Timer_2.c **** }
 136              		.loc 1 336 0
 137 0004 7047     		bx	lr
 138              	.L15:
 139 0006 00BF     		.align	2
 140              	.L14:
 141 0008 68650040 		.word	1073767784
 142              		.cfi_endproc
 143              	.LFE6:
 144              		.size	Timer_2_ReadStatusRegister, .-Timer_2_ReadStatusRegister
 145              		.section	.text.Timer_2_ReadControlRegister,"ax",%progbits
 146              		.align	2
 147              		.global	Timer_2_ReadControlRegister
 148              		.thumb
 149              		.thumb_func
 150              		.type	Timer_2_ReadControlRegister, %function
 151              	Timer_2_ReadControlRegister:
 152              	.LFB7:
 337:.\Generated_Source\PSoC5/Timer_2.c **** 
 338:.\Generated_Source\PSoC5/Timer_2.c **** 
 339:.\Generated_Source\PSoC5/Timer_2.c **** #if (!Timer_2_UDB_CONTROL_REG_REMOVED) /* Remove API if control register is unused */
 340:.\Generated_Source\PSoC5/Timer_2.c **** 
 341:.\Generated_Source\PSoC5/Timer_2.c **** 
 342:.\Generated_Source\PSoC5/Timer_2.c **** /*******************************************************************************
 343:.\Generated_Source\PSoC5/Timer_2.c **** * Function Name: Timer_2_ReadControlRegister
 344:.\Generated_Source\PSoC5/Timer_2.c **** ********************************************************************************
 345:.\Generated_Source\PSoC5/Timer_2.c **** *
 346:.\Generated_Source\PSoC5/Timer_2.c **** * Summary:
 347:.\Generated_Source\PSoC5/Timer_2.c **** *  Reads the control register and returns it's value.
 348:.\Generated_Source\PSoC5/Timer_2.c **** *
 349:.\Generated_Source\PSoC5/Timer_2.c **** * Parameters:
 350:.\Generated_Source\PSoC5/Timer_2.c **** *  void
 351:.\Generated_Source\PSoC5/Timer_2.c **** *
 352:.\Generated_Source\PSoC5/Timer_2.c **** * Return:
 353:.\Generated_Source\PSoC5/Timer_2.c **** *  The contents of the control register
 354:.\Generated_Source\PSoC5/Timer_2.c **** *
 355:.\Generated_Source\PSoC5/Timer_2.c **** *******************************************************************************/
 356:.\Generated_Source\PSoC5/Timer_2.c **** uint8 Timer_2_ReadControlRegister(void) 
 357:.\Generated_Source\PSoC5/Timer_2.c **** {
 153              		.loc 1 357 0
 154              		.cfi_startproc
 155              		@ args = 0, pretend = 0, frame = 0
 156              		@ frame_needed = 0, uses_anonymous_args = 0
ARM GAS  C:\Users\bwil410\AppData\Local\Temp\ccew9tx2.s 			page 10


 157              		@ link register save eliminated.
 358:.\Generated_Source\PSoC5/Timer_2.c ****     #if (!Timer_2_UDB_CONTROL_REG_REMOVED) 
 359:.\Generated_Source\PSoC5/Timer_2.c ****         return ((uint8)Timer_2_CONTROL);
 158              		.loc 1 359 0
 159 0000 014B     		ldr	r3, .L17
 160 0002 1878     		ldrb	r0, [r3]	@ zero_extendqisi2
 360:.\Generated_Source\PSoC5/Timer_2.c ****     #else
 361:.\Generated_Source\PSoC5/Timer_2.c ****         return (0);
 362:.\Generated_Source\PSoC5/Timer_2.c ****     #endif /* (!Timer_2_UDB_CONTROL_REG_REMOVED) */
 363:.\Generated_Source\PSoC5/Timer_2.c **** }
 161              		.loc 1 363 0
 162 0004 7047     		bx	lr
 163              	.L18:
 164 0006 00BF     		.align	2
 165              	.L17:
 166 0008 78650040 		.word	1073767800
 167              		.cfi_endproc
 168              	.LFE7:
 169              		.size	Timer_2_ReadControlRegister, .-Timer_2_ReadControlRegister
 170              		.section	.text.Timer_2_WriteControlRegister,"ax",%progbits
 171              		.align	2
 172              		.global	Timer_2_WriteControlRegister
 173              		.thumb
 174              		.thumb_func
 175              		.type	Timer_2_WriteControlRegister, %function
 176              	Timer_2_WriteControlRegister:
 177              	.LFB8:
 364:.\Generated_Source\PSoC5/Timer_2.c **** 
 365:.\Generated_Source\PSoC5/Timer_2.c **** 
 366:.\Generated_Source\PSoC5/Timer_2.c **** /*******************************************************************************
 367:.\Generated_Source\PSoC5/Timer_2.c **** * Function Name: Timer_2_WriteControlRegister
 368:.\Generated_Source\PSoC5/Timer_2.c **** ********************************************************************************
 369:.\Generated_Source\PSoC5/Timer_2.c **** *
 370:.\Generated_Source\PSoC5/Timer_2.c **** * Summary:
 371:.\Generated_Source\PSoC5/Timer_2.c **** *  Sets the bit-field of the control register.
 372:.\Generated_Source\PSoC5/Timer_2.c **** *
 373:.\Generated_Source\PSoC5/Timer_2.c **** * Parameters:
 374:.\Generated_Source\PSoC5/Timer_2.c **** *  control: The contents of the control register
 375:.\Generated_Source\PSoC5/Timer_2.c **** *
 376:.\Generated_Source\PSoC5/Timer_2.c **** * Return:
 377:.\Generated_Source\PSoC5/Timer_2.c **** *
 378:.\Generated_Source\PSoC5/Timer_2.c **** *******************************************************************************/
 379:.\Generated_Source\PSoC5/Timer_2.c **** void Timer_2_WriteControlRegister(uint8 control) 
 380:.\Generated_Source\PSoC5/Timer_2.c **** {
 178              		.loc 1 380 0
 179              		.cfi_startproc
 180              		@ args = 0, pretend = 0, frame = 0
 181              		@ frame_needed = 0, uses_anonymous_args = 0
 182              		@ link register save eliminated.
 183              	.LVL1:
 381:.\Generated_Source\PSoC5/Timer_2.c ****     #if (!Timer_2_UDB_CONTROL_REG_REMOVED) 
 382:.\Generated_Source\PSoC5/Timer_2.c ****         Timer_2_CONTROL = control;
 184              		.loc 1 382 0
 185 0000 014B     		ldr	r3, .L20
 186 0002 1870     		strb	r0, [r3]
 187 0004 7047     		bx	lr
 188              	.L21:
ARM GAS  C:\Users\bwil410\AppData\Local\Temp\ccew9tx2.s 			page 11


 189 0006 00BF     		.align	2
 190              	.L20:
 191 0008 78650040 		.word	1073767800
 192              		.cfi_endproc
 193              	.LFE8:
 194              		.size	Timer_2_WriteControlRegister, .-Timer_2_WriteControlRegister
 195              		.section	.text.Timer_2_ReadPeriod,"ax",%progbits
 196              		.align	2
 197              		.global	Timer_2_ReadPeriod
 198              		.thumb
 199              		.thumb_func
 200              		.type	Timer_2_ReadPeriod, %function
 201              	Timer_2_ReadPeriod:
 202              	.LFB9:
 383:.\Generated_Source\PSoC5/Timer_2.c ****     #else
 384:.\Generated_Source\PSoC5/Timer_2.c ****         control = 0u;
 385:.\Generated_Source\PSoC5/Timer_2.c ****     #endif /* (!Timer_2_UDB_CONTROL_REG_REMOVED) */
 386:.\Generated_Source\PSoC5/Timer_2.c **** }
 387:.\Generated_Source\PSoC5/Timer_2.c **** 
 388:.\Generated_Source\PSoC5/Timer_2.c **** #endif /* Remove API if control register is unused */
 389:.\Generated_Source\PSoC5/Timer_2.c **** 
 390:.\Generated_Source\PSoC5/Timer_2.c **** 
 391:.\Generated_Source\PSoC5/Timer_2.c **** /*******************************************************************************
 392:.\Generated_Source\PSoC5/Timer_2.c **** * Function Name: Timer_2_ReadPeriod
 393:.\Generated_Source\PSoC5/Timer_2.c **** ********************************************************************************
 394:.\Generated_Source\PSoC5/Timer_2.c **** *
 395:.\Generated_Source\PSoC5/Timer_2.c **** * Summary:
 396:.\Generated_Source\PSoC5/Timer_2.c **** *  This function returns the current value of the Period.
 397:.\Generated_Source\PSoC5/Timer_2.c **** *
 398:.\Generated_Source\PSoC5/Timer_2.c **** * Parameters:
 399:.\Generated_Source\PSoC5/Timer_2.c **** *  void
 400:.\Generated_Source\PSoC5/Timer_2.c **** *
 401:.\Generated_Source\PSoC5/Timer_2.c **** * Return:
 402:.\Generated_Source\PSoC5/Timer_2.c **** *  The present value of the counter.
 403:.\Generated_Source\PSoC5/Timer_2.c **** *
 404:.\Generated_Source\PSoC5/Timer_2.c **** *******************************************************************************/
 405:.\Generated_Source\PSoC5/Timer_2.c **** uint16 Timer_2_ReadPeriod(void) 
 406:.\Generated_Source\PSoC5/Timer_2.c **** {
 203              		.loc 1 406 0
 204              		.cfi_startproc
 205              		@ args = 0, pretend = 0, frame = 0
 206              		@ frame_needed = 0, uses_anonymous_args = 0
 207              		@ link register save eliminated.
 407:.\Generated_Source\PSoC5/Timer_2.c ****    #if(Timer_2_UsingFixedFunction)
 408:.\Generated_Source\PSoC5/Timer_2.c ****        return ((uint16)CY_GET_REG16(Timer_2_PERIOD_LSB_PTR));
 409:.\Generated_Source\PSoC5/Timer_2.c ****    #else
 410:.\Generated_Source\PSoC5/Timer_2.c ****        return (CY_GET_REG16(Timer_2_PERIOD_LSB_PTR));
 208              		.loc 1 410 0
 209 0000 014B     		ldr	r3, .L23
 210 0002 1888     		ldrh	r0, [r3]
 411:.\Generated_Source\PSoC5/Timer_2.c ****    #endif /* (Timer_2_UsingFixedFunction) */
 412:.\Generated_Source\PSoC5/Timer_2.c **** }
 211              		.loc 1 412 0
 212 0004 80B2     		uxth	r0, r0
 213 0006 7047     		bx	lr
 214              	.L24:
 215              		.align	2
ARM GAS  C:\Users\bwil410\AppData\Local\Temp\ccew9tx2.s 			page 12


 216              	.L23:
 217 0008 506A0040 		.word	1073769040
 218              		.cfi_endproc
 219              	.LFE9:
 220              		.size	Timer_2_ReadPeriod, .-Timer_2_ReadPeriod
 221              		.section	.text.Timer_2_WritePeriod,"ax",%progbits
 222              		.align	2
 223              		.global	Timer_2_WritePeriod
 224              		.thumb
 225              		.thumb_func
 226              		.type	Timer_2_WritePeriod, %function
 227              	Timer_2_WritePeriod:
 228              	.LFB10:
 413:.\Generated_Source\PSoC5/Timer_2.c **** 
 414:.\Generated_Source\PSoC5/Timer_2.c **** 
 415:.\Generated_Source\PSoC5/Timer_2.c **** /*******************************************************************************
 416:.\Generated_Source\PSoC5/Timer_2.c **** * Function Name: Timer_2_WritePeriod
 417:.\Generated_Source\PSoC5/Timer_2.c **** ********************************************************************************
 418:.\Generated_Source\PSoC5/Timer_2.c **** *
 419:.\Generated_Source\PSoC5/Timer_2.c **** * Summary:
 420:.\Generated_Source\PSoC5/Timer_2.c **** *  This function is used to change the period of the counter.  The new period
 421:.\Generated_Source\PSoC5/Timer_2.c **** *  will be loaded the next time terminal count is detected.
 422:.\Generated_Source\PSoC5/Timer_2.c **** *
 423:.\Generated_Source\PSoC5/Timer_2.c **** * Parameters:
 424:.\Generated_Source\PSoC5/Timer_2.c **** *  period: This value may be between 1 and (2^Resolution)-1.  A value of 0 will
 425:.\Generated_Source\PSoC5/Timer_2.c **** *          result in the counter remaining at zero.
 426:.\Generated_Source\PSoC5/Timer_2.c **** *
 427:.\Generated_Source\PSoC5/Timer_2.c **** * Return:
 428:.\Generated_Source\PSoC5/Timer_2.c **** *  void
 429:.\Generated_Source\PSoC5/Timer_2.c **** *
 430:.\Generated_Source\PSoC5/Timer_2.c **** *******************************************************************************/
 431:.\Generated_Source\PSoC5/Timer_2.c **** void Timer_2_WritePeriod(uint16 period) 
 432:.\Generated_Source\PSoC5/Timer_2.c **** {
 229              		.loc 1 432 0
 230              		.cfi_startproc
 231              		@ args = 0, pretend = 0, frame = 0
 232              		@ frame_needed = 0, uses_anonymous_args = 0
 233              		@ link register save eliminated.
 234              	.LVL2:
 433:.\Generated_Source\PSoC5/Timer_2.c ****     #if(Timer_2_UsingFixedFunction)
 434:.\Generated_Source\PSoC5/Timer_2.c ****         uint16 period_temp = (uint16)period;
 435:.\Generated_Source\PSoC5/Timer_2.c ****         CY_SET_REG16(Timer_2_PERIOD_LSB_PTR, period_temp);
 436:.\Generated_Source\PSoC5/Timer_2.c ****     #else
 437:.\Generated_Source\PSoC5/Timer_2.c ****         CY_SET_REG16(Timer_2_PERIOD_LSB_PTR, period);
 235              		.loc 1 437 0
 236 0000 014B     		ldr	r3, .L26
 237 0002 1880     		strh	r0, [r3]	@ movhi
 238 0004 7047     		bx	lr
 239              	.L27:
 240 0006 00BF     		.align	2
 241              	.L26:
 242 0008 506A0040 		.word	1073769040
 243              		.cfi_endproc
 244              	.LFE10:
 245              		.size	Timer_2_WritePeriod, .-Timer_2_WritePeriod
 246              		.section	.text.Timer_2_ReadCapture,"ax",%progbits
 247              		.align	2
ARM GAS  C:\Users\bwil410\AppData\Local\Temp\ccew9tx2.s 			page 13


 248              		.global	Timer_2_ReadCapture
 249              		.thumb
 250              		.thumb_func
 251              		.type	Timer_2_ReadCapture, %function
 252              	Timer_2_ReadCapture:
 253              	.LFB11:
 438:.\Generated_Source\PSoC5/Timer_2.c ****     #endif /*Write Period value with appropriate resolution suffix depending on UDB or fixed functi
 439:.\Generated_Source\PSoC5/Timer_2.c **** }
 440:.\Generated_Source\PSoC5/Timer_2.c **** 
 441:.\Generated_Source\PSoC5/Timer_2.c **** 
 442:.\Generated_Source\PSoC5/Timer_2.c **** /*******************************************************************************
 443:.\Generated_Source\PSoC5/Timer_2.c **** * Function Name: Timer_2_ReadCapture
 444:.\Generated_Source\PSoC5/Timer_2.c **** ********************************************************************************
 445:.\Generated_Source\PSoC5/Timer_2.c **** *
 446:.\Generated_Source\PSoC5/Timer_2.c **** * Summary:
 447:.\Generated_Source\PSoC5/Timer_2.c **** *  This function returns the last value captured.
 448:.\Generated_Source\PSoC5/Timer_2.c **** *
 449:.\Generated_Source\PSoC5/Timer_2.c **** * Parameters:
 450:.\Generated_Source\PSoC5/Timer_2.c **** *  void
 451:.\Generated_Source\PSoC5/Timer_2.c **** *
 452:.\Generated_Source\PSoC5/Timer_2.c **** * Return:
 453:.\Generated_Source\PSoC5/Timer_2.c **** *  Present Capture value.
 454:.\Generated_Source\PSoC5/Timer_2.c **** *
 455:.\Generated_Source\PSoC5/Timer_2.c **** *******************************************************************************/
 456:.\Generated_Source\PSoC5/Timer_2.c **** uint16 Timer_2_ReadCapture(void) 
 457:.\Generated_Source\PSoC5/Timer_2.c **** {
 254              		.loc 1 457 0
 255              		.cfi_startproc
 256              		@ args = 0, pretend = 0, frame = 0
 257              		@ frame_needed = 0, uses_anonymous_args = 0
 258              		@ link register save eliminated.
 458:.\Generated_Source\PSoC5/Timer_2.c ****    #if(Timer_2_UsingFixedFunction)
 459:.\Generated_Source\PSoC5/Timer_2.c ****        return ((uint16)CY_GET_REG16(Timer_2_CAPTURE_LSB_PTR));
 460:.\Generated_Source\PSoC5/Timer_2.c ****    #else
 461:.\Generated_Source\PSoC5/Timer_2.c ****        return (CY_GET_REG16(Timer_2_CAPTURE_LSB_PTR));
 259              		.loc 1 461 0
 260 0000 014B     		ldr	r3, .L29
 261 0002 1888     		ldrh	r0, [r3]
 462:.\Generated_Source\PSoC5/Timer_2.c ****    #endif /* (Timer_2_UsingFixedFunction) */
 463:.\Generated_Source\PSoC5/Timer_2.c **** }
 262              		.loc 1 463 0
 263 0004 80B2     		uxth	r0, r0
 264 0006 7047     		bx	lr
 265              	.L30:
 266              		.align	2
 267              	.L29:
 268 0008 906A0040 		.word	1073769104
 269              		.cfi_endproc
 270              	.LFE11:
 271              		.size	Timer_2_ReadCapture, .-Timer_2_ReadCapture
 272              		.section	.text.Timer_2_WriteCounter,"ax",%progbits
 273              		.align	2
 274              		.global	Timer_2_WriteCounter
 275              		.thumb
 276              		.thumb_func
 277              		.type	Timer_2_WriteCounter, %function
 278              	Timer_2_WriteCounter:
ARM GAS  C:\Users\bwil410\AppData\Local\Temp\ccew9tx2.s 			page 14


 279              	.LFB12:
 464:.\Generated_Source\PSoC5/Timer_2.c **** 
 465:.\Generated_Source\PSoC5/Timer_2.c **** 
 466:.\Generated_Source\PSoC5/Timer_2.c **** /*******************************************************************************
 467:.\Generated_Source\PSoC5/Timer_2.c **** * Function Name: Timer_2_WriteCounter
 468:.\Generated_Source\PSoC5/Timer_2.c **** ********************************************************************************
 469:.\Generated_Source\PSoC5/Timer_2.c **** *
 470:.\Generated_Source\PSoC5/Timer_2.c **** * Summary:
 471:.\Generated_Source\PSoC5/Timer_2.c **** *  This funtion is used to set the counter to a specific value
 472:.\Generated_Source\PSoC5/Timer_2.c **** *
 473:.\Generated_Source\PSoC5/Timer_2.c **** * Parameters:
 474:.\Generated_Source\PSoC5/Timer_2.c **** *  counter:  New counter value.
 475:.\Generated_Source\PSoC5/Timer_2.c **** *
 476:.\Generated_Source\PSoC5/Timer_2.c **** * Return:
 477:.\Generated_Source\PSoC5/Timer_2.c **** *  void
 478:.\Generated_Source\PSoC5/Timer_2.c **** *
 479:.\Generated_Source\PSoC5/Timer_2.c **** *******************************************************************************/
 480:.\Generated_Source\PSoC5/Timer_2.c **** void Timer_2_WriteCounter(uint16 counter) 
 481:.\Generated_Source\PSoC5/Timer_2.c **** {
 280              		.loc 1 481 0
 281              		.cfi_startproc
 282              		@ args = 0, pretend = 0, frame = 0
 283              		@ frame_needed = 0, uses_anonymous_args = 0
 284              		@ link register save eliminated.
 285              	.LVL3:
 482:.\Generated_Source\PSoC5/Timer_2.c ****    #if(Timer_2_UsingFixedFunction)
 483:.\Generated_Source\PSoC5/Timer_2.c ****         /* This functionality is removed until a FixedFunction HW update to
 484:.\Generated_Source\PSoC5/Timer_2.c ****          * allow this register to be written
 485:.\Generated_Source\PSoC5/Timer_2.c ****          */
 486:.\Generated_Source\PSoC5/Timer_2.c ****         CY_SET_REG16(Timer_2_COUNTER_LSB_PTR, (uint16)counter);
 487:.\Generated_Source\PSoC5/Timer_2.c ****         
 488:.\Generated_Source\PSoC5/Timer_2.c ****     #else
 489:.\Generated_Source\PSoC5/Timer_2.c ****         CY_SET_REG16(Timer_2_COUNTER_LSB_PTR, counter);
 286              		.loc 1 489 0
 287 0000 014B     		ldr	r3, .L32
 288 0002 1880     		strh	r0, [r3]	@ movhi
 289 0004 7047     		bx	lr
 290              	.L33:
 291 0006 00BF     		.align	2
 292              	.L32:
 293 0008 106A0040 		.word	1073768976
 294              		.cfi_endproc
 295              	.LFE12:
 296              		.size	Timer_2_WriteCounter, .-Timer_2_WriteCounter
 297              		.section	.text.Timer_2_ReadCounter,"ax",%progbits
 298              		.align	2
 299              		.global	Timer_2_ReadCounter
 300              		.thumb
 301              		.thumb_func
 302              		.type	Timer_2_ReadCounter, %function
 303              	Timer_2_ReadCounter:
 304              	.LFB13:
 490:.\Generated_Source\PSoC5/Timer_2.c ****     #endif /* Set Write Counter only for the UDB implementation (Write Counter not available in fix
 491:.\Generated_Source\PSoC5/Timer_2.c **** }
 492:.\Generated_Source\PSoC5/Timer_2.c **** 
 493:.\Generated_Source\PSoC5/Timer_2.c **** 
 494:.\Generated_Source\PSoC5/Timer_2.c **** /*******************************************************************************
ARM GAS  C:\Users\bwil410\AppData\Local\Temp\ccew9tx2.s 			page 15


 495:.\Generated_Source\PSoC5/Timer_2.c **** * Function Name: Timer_2_ReadCounter
 496:.\Generated_Source\PSoC5/Timer_2.c **** ********************************************************************************
 497:.\Generated_Source\PSoC5/Timer_2.c **** *
 498:.\Generated_Source\PSoC5/Timer_2.c **** * Summary:
 499:.\Generated_Source\PSoC5/Timer_2.c **** *  This function returns the current counter value.
 500:.\Generated_Source\PSoC5/Timer_2.c **** *
 501:.\Generated_Source\PSoC5/Timer_2.c **** * Parameters:
 502:.\Generated_Source\PSoC5/Timer_2.c **** *  void
 503:.\Generated_Source\PSoC5/Timer_2.c **** *
 504:.\Generated_Source\PSoC5/Timer_2.c **** * Return:
 505:.\Generated_Source\PSoC5/Timer_2.c **** *  Present compare value.
 506:.\Generated_Source\PSoC5/Timer_2.c **** *
 507:.\Generated_Source\PSoC5/Timer_2.c **** *******************************************************************************/
 508:.\Generated_Source\PSoC5/Timer_2.c **** uint16 Timer_2_ReadCounter(void) 
 509:.\Generated_Source\PSoC5/Timer_2.c **** {
 305              		.loc 1 509 0
 306              		.cfi_startproc
 307              		@ args = 0, pretend = 0, frame = 0
 308              		@ frame_needed = 0, uses_anonymous_args = 0
 309              		@ link register save eliminated.
 510:.\Generated_Source\PSoC5/Timer_2.c ****     /* Force capture by reading Accumulator */
 511:.\Generated_Source\PSoC5/Timer_2.c ****     /* Must first do a software capture to be able to read the counter */
 512:.\Generated_Source\PSoC5/Timer_2.c ****     /* It is up to the user code to make sure there isn't already captured data in the FIFO */
 513:.\Generated_Source\PSoC5/Timer_2.c ****     #if(Timer_2_UsingFixedFunction)
 514:.\Generated_Source\PSoC5/Timer_2.c ****         (void)CY_GET_REG16(Timer_2_COUNTER_LSB_PTR);
 515:.\Generated_Source\PSoC5/Timer_2.c ****     #else
 516:.\Generated_Source\PSoC5/Timer_2.c ****         (void)CY_GET_REG8(Timer_2_COUNTER_LSB_PTR_8BIT);
 310              		.loc 1 516 0
 311 0000 024B     		ldr	r3, .L35
 312 0002 1B78     		ldrb	r3, [r3]	@ zero_extendqisi2
 517:.\Generated_Source\PSoC5/Timer_2.c ****     #endif/* (Timer_2_UsingFixedFunction) */
 518:.\Generated_Source\PSoC5/Timer_2.c **** 
 519:.\Generated_Source\PSoC5/Timer_2.c ****     /* Read the data from the FIFO (or capture register for Fixed Function)*/
 520:.\Generated_Source\PSoC5/Timer_2.c ****     #if(Timer_2_UsingFixedFunction)
 521:.\Generated_Source\PSoC5/Timer_2.c ****         return ((uint16)CY_GET_REG16(Timer_2_CAPTURE_LSB_PTR));
 522:.\Generated_Source\PSoC5/Timer_2.c ****     #else
 523:.\Generated_Source\PSoC5/Timer_2.c ****         return (CY_GET_REG16(Timer_2_CAPTURE_LSB_PTR));
 313              		.loc 1 523 0
 314 0004 024B     		ldr	r3, .L35+4
 315 0006 1888     		ldrh	r0, [r3]
 524:.\Generated_Source\PSoC5/Timer_2.c ****     #endif /* (Timer_2_UsingFixedFunction) */
 525:.\Generated_Source\PSoC5/Timer_2.c **** }
 316              		.loc 1 525 0
 317 0008 80B2     		uxth	r0, r0
 318 000a 7047     		bx	lr
 319              	.L36:
 320              		.align	2
 321              	.L35:
 322 000c 08650040 		.word	1073767688
 323 0010 906A0040 		.word	1073769104
 324              		.cfi_endproc
 325              	.LFE13:
 326              		.size	Timer_2_ReadCounter, .-Timer_2_ReadCounter
 327              		.section	.text.Timer_2_EnableTrigger,"ax",%progbits
 328              		.align	2
 329              		.global	Timer_2_EnableTrigger
 330              		.thumb
ARM GAS  C:\Users\bwil410\AppData\Local\Temp\ccew9tx2.s 			page 16


 331              		.thumb_func
 332              		.type	Timer_2_EnableTrigger, %function
 333              	Timer_2_EnableTrigger:
 334              	.LFB14:
 526:.\Generated_Source\PSoC5/Timer_2.c **** 
 527:.\Generated_Source\PSoC5/Timer_2.c **** 
 528:.\Generated_Source\PSoC5/Timer_2.c **** #if(!Timer_2_UsingFixedFunction) /* UDB Specific Functions */
 529:.\Generated_Source\PSoC5/Timer_2.c **** 
 530:.\Generated_Source\PSoC5/Timer_2.c ****     
 531:.\Generated_Source\PSoC5/Timer_2.c **** /*******************************************************************************
 532:.\Generated_Source\PSoC5/Timer_2.c ****  * The functions below this point are only available using the UDB
 533:.\Generated_Source\PSoC5/Timer_2.c ****  * implementation.  If a feature is selected, then the API is enabled.
 534:.\Generated_Source\PSoC5/Timer_2.c ****  ******************************************************************************/
 535:.\Generated_Source\PSoC5/Timer_2.c **** 
 536:.\Generated_Source\PSoC5/Timer_2.c **** 
 537:.\Generated_Source\PSoC5/Timer_2.c **** #if (Timer_2_SoftwareCaptureMode)
 538:.\Generated_Source\PSoC5/Timer_2.c **** 
 539:.\Generated_Source\PSoC5/Timer_2.c **** 
 540:.\Generated_Source\PSoC5/Timer_2.c **** /*******************************************************************************
 541:.\Generated_Source\PSoC5/Timer_2.c **** * Function Name: Timer_2_SetCaptureMode
 542:.\Generated_Source\PSoC5/Timer_2.c **** ********************************************************************************
 543:.\Generated_Source\PSoC5/Timer_2.c **** *
 544:.\Generated_Source\PSoC5/Timer_2.c **** * Summary:
 545:.\Generated_Source\PSoC5/Timer_2.c **** *  This function sets the capture mode to either rising or falling edge.
 546:.\Generated_Source\PSoC5/Timer_2.c **** *
 547:.\Generated_Source\PSoC5/Timer_2.c **** * Parameters:
 548:.\Generated_Source\PSoC5/Timer_2.c **** *  captureMode: This parameter sets the capture mode of the UDB capture feature
 549:.\Generated_Source\PSoC5/Timer_2.c **** *  The parameter values are defined using the
 550:.\Generated_Source\PSoC5/Timer_2.c **** *  #define Timer_2__B_TIMER__CM_NONE 0
 551:.\Generated_Source\PSoC5/Timer_2.c **** #define Timer_2__B_TIMER__CM_RISINGEDGE 1
 552:.\Generated_Source\PSoC5/Timer_2.c **** #define Timer_2__B_TIMER__CM_FALLINGEDGE 2
 553:.\Generated_Source\PSoC5/Timer_2.c **** #define Timer_2__B_TIMER__CM_EITHEREDGE 3
 554:.\Generated_Source\PSoC5/Timer_2.c **** #define Timer_2__B_TIMER__CM_SOFTWARE 4
 555:.\Generated_Source\PSoC5/Timer_2.c ****  identifiers
 556:.\Generated_Source\PSoC5/Timer_2.c **** *  The following are the possible values of the parameter
 557:.\Generated_Source\PSoC5/Timer_2.c **** *  Timer_2__B_TIMER__CM_NONE        - Set Capture mode to None
 558:.\Generated_Source\PSoC5/Timer_2.c **** *  Timer_2__B_TIMER__CM_RISINGEDGE  - Rising edge of Capture input
 559:.\Generated_Source\PSoC5/Timer_2.c **** *  Timer_2__B_TIMER__CM_FALLINGEDGE - Falling edge of Capture input
 560:.\Generated_Source\PSoC5/Timer_2.c **** *  Timer_2__B_TIMER__CM_EITHEREDGE  - Either edge of Capture input
 561:.\Generated_Source\PSoC5/Timer_2.c **** *
 562:.\Generated_Source\PSoC5/Timer_2.c **** * Return:
 563:.\Generated_Source\PSoC5/Timer_2.c **** *  void
 564:.\Generated_Source\PSoC5/Timer_2.c **** *
 565:.\Generated_Source\PSoC5/Timer_2.c **** *******************************************************************************/
 566:.\Generated_Source\PSoC5/Timer_2.c **** void Timer_2_SetCaptureMode(uint8 captureMode) 
 567:.\Generated_Source\PSoC5/Timer_2.c **** {
 568:.\Generated_Source\PSoC5/Timer_2.c ****     /* This must only set to two bits of the control register associated */
 569:.\Generated_Source\PSoC5/Timer_2.c ****     captureMode = ((uint8)((uint8)captureMode << Timer_2_CTRL_CAP_MODE_SHIFT));
 570:.\Generated_Source\PSoC5/Timer_2.c ****     captureMode &= (Timer_2_CTRL_CAP_MODE_MASK);
 571:.\Generated_Source\PSoC5/Timer_2.c **** 
 572:.\Generated_Source\PSoC5/Timer_2.c ****     #if (!Timer_2_UDB_CONTROL_REG_REMOVED)
 573:.\Generated_Source\PSoC5/Timer_2.c ****         /* Clear the Current Setting */
 574:.\Generated_Source\PSoC5/Timer_2.c ****         Timer_2_CONTROL &= ((uint8)(~Timer_2_CTRL_CAP_MODE_MASK));
 575:.\Generated_Source\PSoC5/Timer_2.c **** 
 576:.\Generated_Source\PSoC5/Timer_2.c ****         /* Write The New Setting */
 577:.\Generated_Source\PSoC5/Timer_2.c ****         Timer_2_CONTROL |= captureMode;
 578:.\Generated_Source\PSoC5/Timer_2.c ****     #endif /* (!Timer_2_UDB_CONTROL_REG_REMOVED) */
ARM GAS  C:\Users\bwil410\AppData\Local\Temp\ccew9tx2.s 			page 17


 579:.\Generated_Source\PSoC5/Timer_2.c **** }
 580:.\Generated_Source\PSoC5/Timer_2.c **** #endif /* Remove API if Capture Mode is not Software Controlled */
 581:.\Generated_Source\PSoC5/Timer_2.c **** 
 582:.\Generated_Source\PSoC5/Timer_2.c **** 
 583:.\Generated_Source\PSoC5/Timer_2.c **** #if (Timer_2_SoftwareTriggerMode)
 584:.\Generated_Source\PSoC5/Timer_2.c **** 
 585:.\Generated_Source\PSoC5/Timer_2.c **** 
 586:.\Generated_Source\PSoC5/Timer_2.c **** /*******************************************************************************
 587:.\Generated_Source\PSoC5/Timer_2.c **** * Function Name: Timer_2_SetTriggerMode
 588:.\Generated_Source\PSoC5/Timer_2.c **** ********************************************************************************
 589:.\Generated_Source\PSoC5/Timer_2.c **** *
 590:.\Generated_Source\PSoC5/Timer_2.c **** * Summary:
 591:.\Generated_Source\PSoC5/Timer_2.c **** *  This function sets the trigger input mode
 592:.\Generated_Source\PSoC5/Timer_2.c **** *
 593:.\Generated_Source\PSoC5/Timer_2.c **** * Parameters:
 594:.\Generated_Source\PSoC5/Timer_2.c **** *  triggerMode: Pass one of the pre-defined Trigger Modes (except Software)
 595:.\Generated_Source\PSoC5/Timer_2.c ****     #define Timer_2__B_TIMER__TM_NONE 0x00u
 596:.\Generated_Source\PSoC5/Timer_2.c ****     #define Timer_2__B_TIMER__TM_RISINGEDGE 0x04u
 597:.\Generated_Source\PSoC5/Timer_2.c ****     #define Timer_2__B_TIMER__TM_FALLINGEDGE 0x08u
 598:.\Generated_Source\PSoC5/Timer_2.c ****     #define Timer_2__B_TIMER__TM_EITHEREDGE 0x0Cu
 599:.\Generated_Source\PSoC5/Timer_2.c ****     #define Timer_2__B_TIMER__TM_SOFTWARE 0x10u
 600:.\Generated_Source\PSoC5/Timer_2.c **** *
 601:.\Generated_Source\PSoC5/Timer_2.c **** * Return:
 602:.\Generated_Source\PSoC5/Timer_2.c **** *  void
 603:.\Generated_Source\PSoC5/Timer_2.c **** *
 604:.\Generated_Source\PSoC5/Timer_2.c **** *******************************************************************************/
 605:.\Generated_Source\PSoC5/Timer_2.c **** void Timer_2_SetTriggerMode(uint8 triggerMode) 
 606:.\Generated_Source\PSoC5/Timer_2.c **** {
 607:.\Generated_Source\PSoC5/Timer_2.c ****     /* This must only set to two bits of the control register associated */
 608:.\Generated_Source\PSoC5/Timer_2.c ****     triggerMode &= Timer_2_CTRL_TRIG_MODE_MASK;
 609:.\Generated_Source\PSoC5/Timer_2.c **** 
 610:.\Generated_Source\PSoC5/Timer_2.c ****     #if (!Timer_2_UDB_CONTROL_REG_REMOVED)   /* Remove assignment if control register is removed */
 611:.\Generated_Source\PSoC5/Timer_2.c ****     
 612:.\Generated_Source\PSoC5/Timer_2.c ****         /* Clear the Current Setting */
 613:.\Generated_Source\PSoC5/Timer_2.c ****         Timer_2_CONTROL &= ((uint8)(~Timer_2_CTRL_TRIG_MODE_MASK));
 614:.\Generated_Source\PSoC5/Timer_2.c **** 
 615:.\Generated_Source\PSoC5/Timer_2.c ****         /* Write The New Setting */
 616:.\Generated_Source\PSoC5/Timer_2.c ****         Timer_2_CONTROL |= (triggerMode | Timer_2__B_TIMER__TM_SOFTWARE);
 617:.\Generated_Source\PSoC5/Timer_2.c ****     #endif /* Remove code section if control register is not used */
 618:.\Generated_Source\PSoC5/Timer_2.c **** }
 619:.\Generated_Source\PSoC5/Timer_2.c **** #endif /* Remove API if Trigger Mode is not Software Controlled */
 620:.\Generated_Source\PSoC5/Timer_2.c **** 
 621:.\Generated_Source\PSoC5/Timer_2.c **** #if (Timer_2_EnableTriggerMode)
 622:.\Generated_Source\PSoC5/Timer_2.c **** 
 623:.\Generated_Source\PSoC5/Timer_2.c **** 
 624:.\Generated_Source\PSoC5/Timer_2.c **** /*******************************************************************************
 625:.\Generated_Source\PSoC5/Timer_2.c **** * Function Name: Timer_2_EnableTrigger
 626:.\Generated_Source\PSoC5/Timer_2.c **** ********************************************************************************
 627:.\Generated_Source\PSoC5/Timer_2.c **** *
 628:.\Generated_Source\PSoC5/Timer_2.c **** * Summary:
 629:.\Generated_Source\PSoC5/Timer_2.c **** *  Sets the control bit enabling Hardware Trigger mode
 630:.\Generated_Source\PSoC5/Timer_2.c **** *
 631:.\Generated_Source\PSoC5/Timer_2.c **** * Parameters:
 632:.\Generated_Source\PSoC5/Timer_2.c **** *  void
 633:.\Generated_Source\PSoC5/Timer_2.c **** *
 634:.\Generated_Source\PSoC5/Timer_2.c **** * Return:
 635:.\Generated_Source\PSoC5/Timer_2.c **** *  void
ARM GAS  C:\Users\bwil410\AppData\Local\Temp\ccew9tx2.s 			page 18


 636:.\Generated_Source\PSoC5/Timer_2.c **** *
 637:.\Generated_Source\PSoC5/Timer_2.c **** *******************************************************************************/
 638:.\Generated_Source\PSoC5/Timer_2.c **** void Timer_2_EnableTrigger(void) 
 639:.\Generated_Source\PSoC5/Timer_2.c **** {
 335              		.loc 1 639 0
 336              		.cfi_startproc
 337              		@ args = 0, pretend = 0, frame = 0
 338              		@ frame_needed = 0, uses_anonymous_args = 0
 339              		@ link register save eliminated.
 640:.\Generated_Source\PSoC5/Timer_2.c ****     #if (!Timer_2_UDB_CONTROL_REG_REMOVED)   /* Remove assignment if control register is removed */
 641:.\Generated_Source\PSoC5/Timer_2.c ****         Timer_2_CONTROL |= Timer_2_CTRL_TRIG_EN;
 340              		.loc 1 641 0
 341 0000 024A     		ldr	r2, .L38
 342 0002 1378     		ldrb	r3, [r2]	@ zero_extendqisi2
 343 0004 43F01003 		orr	r3, r3, #16
 344 0008 1370     		strb	r3, [r2]
 345 000a 7047     		bx	lr
 346              	.L39:
 347              		.align	2
 348              	.L38:
 349 000c 78650040 		.word	1073767800
 350              		.cfi_endproc
 351              	.LFE14:
 352              		.size	Timer_2_EnableTrigger, .-Timer_2_EnableTrigger
 353              		.section	.text.Timer_2_DisableTrigger,"ax",%progbits
 354              		.align	2
 355              		.global	Timer_2_DisableTrigger
 356              		.thumb
 357              		.thumb_func
 358              		.type	Timer_2_DisableTrigger, %function
 359              	Timer_2_DisableTrigger:
 360              	.LFB15:
 642:.\Generated_Source\PSoC5/Timer_2.c ****     #endif /* Remove code section if control register is not used */
 643:.\Generated_Source\PSoC5/Timer_2.c **** }
 644:.\Generated_Source\PSoC5/Timer_2.c **** 
 645:.\Generated_Source\PSoC5/Timer_2.c **** 
 646:.\Generated_Source\PSoC5/Timer_2.c **** /*******************************************************************************
 647:.\Generated_Source\PSoC5/Timer_2.c **** * Function Name: Timer_2_DisableTrigger
 648:.\Generated_Source\PSoC5/Timer_2.c **** ********************************************************************************
 649:.\Generated_Source\PSoC5/Timer_2.c **** *
 650:.\Generated_Source\PSoC5/Timer_2.c **** * Summary:
 651:.\Generated_Source\PSoC5/Timer_2.c **** *  Clears the control bit enabling Hardware Trigger mode
 652:.\Generated_Source\PSoC5/Timer_2.c **** *
 653:.\Generated_Source\PSoC5/Timer_2.c **** * Parameters:
 654:.\Generated_Source\PSoC5/Timer_2.c **** *  void
 655:.\Generated_Source\PSoC5/Timer_2.c **** *
 656:.\Generated_Source\PSoC5/Timer_2.c **** * Return:
 657:.\Generated_Source\PSoC5/Timer_2.c **** *  void
 658:.\Generated_Source\PSoC5/Timer_2.c **** *
 659:.\Generated_Source\PSoC5/Timer_2.c **** *******************************************************************************/
 660:.\Generated_Source\PSoC5/Timer_2.c **** void Timer_2_DisableTrigger(void) 
 661:.\Generated_Source\PSoC5/Timer_2.c **** {
 361              		.loc 1 661 0
 362              		.cfi_startproc
 363              		@ args = 0, pretend = 0, frame = 0
 364              		@ frame_needed = 0, uses_anonymous_args = 0
 365              		@ link register save eliminated.
ARM GAS  C:\Users\bwil410\AppData\Local\Temp\ccew9tx2.s 			page 19


 662:.\Generated_Source\PSoC5/Timer_2.c ****     #if (!Timer_2_UDB_CONTROL_REG_REMOVED )   /* Remove assignment if control register is removed *
 663:.\Generated_Source\PSoC5/Timer_2.c ****         Timer_2_CONTROL &= ((uint8)(~Timer_2_CTRL_TRIG_EN));
 366              		.loc 1 663 0
 367 0000 024A     		ldr	r2, .L41
 368 0002 1378     		ldrb	r3, [r2]	@ zero_extendqisi2
 369 0004 03F0EF03 		and	r3, r3, #239
 370 0008 1370     		strb	r3, [r2]
 371 000a 7047     		bx	lr
 372              	.L42:
 373              		.align	2
 374              	.L41:
 375 000c 78650040 		.word	1073767800
 376              		.cfi_endproc
 377              	.LFE15:
 378              		.size	Timer_2_DisableTrigger, .-Timer_2_DisableTrigger
 379              		.section	.text.Timer_2_SetInterruptCount,"ax",%progbits
 380              		.align	2
 381              		.global	Timer_2_SetInterruptCount
 382              		.thumb
 383              		.thumb_func
 384              		.type	Timer_2_SetInterruptCount, %function
 385              	Timer_2_SetInterruptCount:
 386              	.LFB16:
 664:.\Generated_Source\PSoC5/Timer_2.c ****     #endif /* Remove code section if control register is not used */
 665:.\Generated_Source\PSoC5/Timer_2.c **** }
 666:.\Generated_Source\PSoC5/Timer_2.c **** #endif /* Remove API is Trigger Mode is set to None */
 667:.\Generated_Source\PSoC5/Timer_2.c **** 
 668:.\Generated_Source\PSoC5/Timer_2.c **** #if(Timer_2_InterruptOnCaptureCount)
 669:.\Generated_Source\PSoC5/Timer_2.c **** 
 670:.\Generated_Source\PSoC5/Timer_2.c **** 
 671:.\Generated_Source\PSoC5/Timer_2.c **** /*******************************************************************************
 672:.\Generated_Source\PSoC5/Timer_2.c **** * Function Name: Timer_2_SetInterruptCount
 673:.\Generated_Source\PSoC5/Timer_2.c **** ********************************************************************************
 674:.\Generated_Source\PSoC5/Timer_2.c **** *
 675:.\Generated_Source\PSoC5/Timer_2.c **** * Summary:
 676:.\Generated_Source\PSoC5/Timer_2.c **** *  This function sets the capture count before an interrupt is triggered.
 677:.\Generated_Source\PSoC5/Timer_2.c **** *
 678:.\Generated_Source\PSoC5/Timer_2.c **** * Parameters:
 679:.\Generated_Source\PSoC5/Timer_2.c **** *  interruptCount:  A value between 0 and 3 is valid.  If the value is 0, then
 680:.\Generated_Source\PSoC5/Timer_2.c **** *                   an interrupt will occur each time a capture occurs.
 681:.\Generated_Source\PSoC5/Timer_2.c **** *                   A value of 1 to 3 will cause the interrupt
 682:.\Generated_Source\PSoC5/Timer_2.c **** *                   to delay by the same number of captures.
 683:.\Generated_Source\PSoC5/Timer_2.c **** *
 684:.\Generated_Source\PSoC5/Timer_2.c **** * Return:
 685:.\Generated_Source\PSoC5/Timer_2.c **** *  void
 686:.\Generated_Source\PSoC5/Timer_2.c **** *
 687:.\Generated_Source\PSoC5/Timer_2.c **** *******************************************************************************/
 688:.\Generated_Source\PSoC5/Timer_2.c **** void Timer_2_SetInterruptCount(uint8 interruptCount) 
 689:.\Generated_Source\PSoC5/Timer_2.c **** {
 387              		.loc 1 689 0
 388              		.cfi_startproc
 389              		@ args = 0, pretend = 0, frame = 0
 390              		@ frame_needed = 0, uses_anonymous_args = 0
 391              		@ link register save eliminated.
 392              	.LVL4:
 690:.\Generated_Source\PSoC5/Timer_2.c ****     /* This must only set to two bits of the control register associated */
 691:.\Generated_Source\PSoC5/Timer_2.c ****     interruptCount &= Timer_2_CTRL_INTCNT_MASK;
ARM GAS  C:\Users\bwil410\AppData\Local\Temp\ccew9tx2.s 			page 20


 393              		.loc 1 691 0
 394 0000 00F00300 		and	r0, r0, #3
 395              	.LVL5:
 692:.\Generated_Source\PSoC5/Timer_2.c **** 
 693:.\Generated_Source\PSoC5/Timer_2.c ****     #if (!Timer_2_UDB_CONTROL_REG_REMOVED)
 694:.\Generated_Source\PSoC5/Timer_2.c ****         /* Clear the Current Setting */
 695:.\Generated_Source\PSoC5/Timer_2.c ****         Timer_2_CONTROL &= ((uint8)(~Timer_2_CTRL_INTCNT_MASK));
 396              		.loc 1 695 0
 397 0004 044B     		ldr	r3, .L44
 398 0006 1A78     		ldrb	r2, [r3]	@ zero_extendqisi2
 399 0008 02F0FC02 		and	r2, r2, #252
 400 000c 1A70     		strb	r2, [r3]
 696:.\Generated_Source\PSoC5/Timer_2.c ****         /* Write The New Setting */
 697:.\Generated_Source\PSoC5/Timer_2.c ****         Timer_2_CONTROL |= interruptCount;
 401              		.loc 1 697 0
 402 000e 1A78     		ldrb	r2, [r3]	@ zero_extendqisi2
 403 0010 1043     		orrs	r0, r0, r2
 404              	.LVL6:
 405 0012 1870     		strb	r0, [r3]
 406 0014 7047     		bx	lr
 407              	.L45:
 408 0016 00BF     		.align	2
 409              	.L44:
 410 0018 78650040 		.word	1073767800
 411              		.cfi_endproc
 412              	.LFE16:
 413              		.size	Timer_2_SetInterruptCount, .-Timer_2_SetInterruptCount
 414              		.section	.text.Timer_2_SetCaptureCount,"ax",%progbits
 415              		.align	2
 416              		.global	Timer_2_SetCaptureCount
 417              		.thumb
 418              		.thumb_func
 419              		.type	Timer_2_SetCaptureCount, %function
 420              	Timer_2_SetCaptureCount:
 421              	.LFB17:
 698:.\Generated_Source\PSoC5/Timer_2.c ****     #endif /* (!Timer_2_UDB_CONTROL_REG_REMOVED) */
 699:.\Generated_Source\PSoC5/Timer_2.c **** }
 700:.\Generated_Source\PSoC5/Timer_2.c **** #endif /* Timer_2_InterruptOnCaptureCount */
 701:.\Generated_Source\PSoC5/Timer_2.c **** 
 702:.\Generated_Source\PSoC5/Timer_2.c **** 
 703:.\Generated_Source\PSoC5/Timer_2.c **** #if (Timer_2_UsingHWCaptureCounter)
 704:.\Generated_Source\PSoC5/Timer_2.c **** 
 705:.\Generated_Source\PSoC5/Timer_2.c **** 
 706:.\Generated_Source\PSoC5/Timer_2.c **** /*******************************************************************************
 707:.\Generated_Source\PSoC5/Timer_2.c **** * Function Name: Timer_2_SetCaptureCount
 708:.\Generated_Source\PSoC5/Timer_2.c **** ********************************************************************************
 709:.\Generated_Source\PSoC5/Timer_2.c **** *
 710:.\Generated_Source\PSoC5/Timer_2.c **** * Summary:
 711:.\Generated_Source\PSoC5/Timer_2.c **** *  This function sets the capture count
 712:.\Generated_Source\PSoC5/Timer_2.c **** *
 713:.\Generated_Source\PSoC5/Timer_2.c **** * Parameters:
 714:.\Generated_Source\PSoC5/Timer_2.c **** *  captureCount: A value between 2 and 127 inclusive is valid.  A value of 1
 715:.\Generated_Source\PSoC5/Timer_2.c **** *                to 127 will cause the interrupt to delay by the same number of
 716:.\Generated_Source\PSoC5/Timer_2.c **** *                captures.
 717:.\Generated_Source\PSoC5/Timer_2.c **** *
 718:.\Generated_Source\PSoC5/Timer_2.c **** * Return:
 719:.\Generated_Source\PSoC5/Timer_2.c **** *  void
ARM GAS  C:\Users\bwil410\AppData\Local\Temp\ccew9tx2.s 			page 21


 720:.\Generated_Source\PSoC5/Timer_2.c **** *
 721:.\Generated_Source\PSoC5/Timer_2.c **** *******************************************************************************/
 722:.\Generated_Source\PSoC5/Timer_2.c **** void Timer_2_SetCaptureCount(uint8 captureCount) 
 723:.\Generated_Source\PSoC5/Timer_2.c **** {
 422              		.loc 1 723 0
 423              		.cfi_startproc
 424              		@ args = 0, pretend = 0, frame = 0
 425              		@ frame_needed = 0, uses_anonymous_args = 0
 426              		@ link register save eliminated.
 427              	.LVL7:
 724:.\Generated_Source\PSoC5/Timer_2.c ****     Timer_2_CAP_COUNT = captureCount;
 428              		.loc 1 724 0
 429 0000 014B     		ldr	r3, .L47
 430 0002 1870     		strb	r0, [r3]
 431 0004 7047     		bx	lr
 432              	.L48:
 433 0006 00BF     		.align	2
 434              	.L47:
 435 0008 89650040 		.word	1073767817
 436              		.cfi_endproc
 437              	.LFE17:
 438              		.size	Timer_2_SetCaptureCount, .-Timer_2_SetCaptureCount
 439              		.section	.text.Timer_2_ReadCaptureCount,"ax",%progbits
 440              		.align	2
 441              		.global	Timer_2_ReadCaptureCount
 442              		.thumb
 443              		.thumb_func
 444              		.type	Timer_2_ReadCaptureCount, %function
 445              	Timer_2_ReadCaptureCount:
 446              	.LFB18:
 725:.\Generated_Source\PSoC5/Timer_2.c **** }
 726:.\Generated_Source\PSoC5/Timer_2.c **** 
 727:.\Generated_Source\PSoC5/Timer_2.c **** 
 728:.\Generated_Source\PSoC5/Timer_2.c **** /*******************************************************************************
 729:.\Generated_Source\PSoC5/Timer_2.c **** * Function Name: Timer_2_ReadCaptureCount
 730:.\Generated_Source\PSoC5/Timer_2.c **** ********************************************************************************
 731:.\Generated_Source\PSoC5/Timer_2.c **** *
 732:.\Generated_Source\PSoC5/Timer_2.c **** * Summary:
 733:.\Generated_Source\PSoC5/Timer_2.c **** *  This function reads the capture count setting
 734:.\Generated_Source\PSoC5/Timer_2.c **** *
 735:.\Generated_Source\PSoC5/Timer_2.c **** * Parameters:
 736:.\Generated_Source\PSoC5/Timer_2.c **** *  void
 737:.\Generated_Source\PSoC5/Timer_2.c **** *
 738:.\Generated_Source\PSoC5/Timer_2.c **** * Return:
 739:.\Generated_Source\PSoC5/Timer_2.c **** *  Returns the Capture Count Setting
 740:.\Generated_Source\PSoC5/Timer_2.c **** *
 741:.\Generated_Source\PSoC5/Timer_2.c **** *******************************************************************************/
 742:.\Generated_Source\PSoC5/Timer_2.c **** uint8 Timer_2_ReadCaptureCount(void) 
 743:.\Generated_Source\PSoC5/Timer_2.c **** {
 447              		.loc 1 743 0
 448              		.cfi_startproc
 449              		@ args = 0, pretend = 0, frame = 0
 450              		@ frame_needed = 0, uses_anonymous_args = 0
 451              		@ link register save eliminated.
 744:.\Generated_Source\PSoC5/Timer_2.c ****     return ((uint8)Timer_2_CAP_COUNT);
 452              		.loc 1 744 0
 453 0000 014B     		ldr	r3, .L50
ARM GAS  C:\Users\bwil410\AppData\Local\Temp\ccew9tx2.s 			page 22


 454 0002 1878     		ldrb	r0, [r3]	@ zero_extendqisi2
 745:.\Generated_Source\PSoC5/Timer_2.c **** }
 455              		.loc 1 745 0
 456 0004 7047     		bx	lr
 457              	.L51:
 458 0006 00BF     		.align	2
 459              	.L50:
 460 0008 89650040 		.word	1073767817
 461              		.cfi_endproc
 462              	.LFE18:
 463              		.size	Timer_2_ReadCaptureCount, .-Timer_2_ReadCaptureCount
 464              		.section	.text.Timer_2_ClearFIFO,"ax",%progbits
 465              		.align	2
 466              		.global	Timer_2_ClearFIFO
 467              		.thumb
 468              		.thumb_func
 469              		.type	Timer_2_ClearFIFO, %function
 470              	Timer_2_ClearFIFO:
 471              	.LFB19:
 746:.\Generated_Source\PSoC5/Timer_2.c **** #endif /* Timer_2_UsingHWCaptureCounter */
 747:.\Generated_Source\PSoC5/Timer_2.c **** 
 748:.\Generated_Source\PSoC5/Timer_2.c **** 
 749:.\Generated_Source\PSoC5/Timer_2.c **** /*******************************************************************************
 750:.\Generated_Source\PSoC5/Timer_2.c **** * Function Name: Timer_2_ClearFIFO
 751:.\Generated_Source\PSoC5/Timer_2.c **** ********************************************************************************
 752:.\Generated_Source\PSoC5/Timer_2.c **** *
 753:.\Generated_Source\PSoC5/Timer_2.c **** * Summary:
 754:.\Generated_Source\PSoC5/Timer_2.c **** *  This function clears all capture data from the capture FIFO
 755:.\Generated_Source\PSoC5/Timer_2.c **** *
 756:.\Generated_Source\PSoC5/Timer_2.c **** * Parameters:
 757:.\Generated_Source\PSoC5/Timer_2.c **** *  void
 758:.\Generated_Source\PSoC5/Timer_2.c **** *
 759:.\Generated_Source\PSoC5/Timer_2.c **** * Return:
 760:.\Generated_Source\PSoC5/Timer_2.c **** *  void
 761:.\Generated_Source\PSoC5/Timer_2.c **** *
 762:.\Generated_Source\PSoC5/Timer_2.c **** *******************************************************************************/
 763:.\Generated_Source\PSoC5/Timer_2.c **** void Timer_2_ClearFIFO(void) 
 764:.\Generated_Source\PSoC5/Timer_2.c **** {
 472              		.loc 1 764 0
 473              		.cfi_startproc
 474              		@ args = 0, pretend = 0, frame = 0
 475              		@ frame_needed = 0, uses_anonymous_args = 0
 476 0000 08B5     		push	{r3, lr}
 477              		.cfi_def_cfa_offset 8
 478              		.cfi_offset 3, -8
 479              		.cfi_offset 14, -4
 765:.\Generated_Source\PSoC5/Timer_2.c ****     while(0u != (Timer_2_ReadStatusRegister() & Timer_2_STATUS_FIFONEMP))
 480              		.loc 1 765 0
 481 0002 01E0     		b	.L53
 482              	.L54:
 766:.\Generated_Source\PSoC5/Timer_2.c ****     {
 767:.\Generated_Source\PSoC5/Timer_2.c ****         (void)Timer_2_ReadCapture();
 483              		.loc 1 767 0
 484 0004 FFF7FEFF 		bl	Timer_2_ReadCapture
 485              	.LVL8:
 486              	.L53:
 765:.\Generated_Source\PSoC5/Timer_2.c ****     while(0u != (Timer_2_ReadStatusRegister() & Timer_2_STATUS_FIFONEMP))
ARM GAS  C:\Users\bwil410\AppData\Local\Temp\ccew9tx2.s 			page 23


 487              		.loc 1 765 0
 488 0008 FFF7FEFF 		bl	Timer_2_ReadStatusRegister
 489              	.LVL9:
 490 000c 10F0080F 		tst	r0, #8
 491 0010 F8D1     		bne	.L54
 768:.\Generated_Source\PSoC5/Timer_2.c ****     }
 769:.\Generated_Source\PSoC5/Timer_2.c **** }
 492              		.loc 1 769 0
 493 0012 08BD     		pop	{r3, pc}
 494              		.cfi_endproc
 495              	.LFE19:
 496              		.size	Timer_2_ClearFIFO, .-Timer_2_ClearFIFO
 497              		.section	.text.Timer_2_Init,"ax",%progbits
 498              		.align	2
 499              		.global	Timer_2_Init
 500              		.thumb
 501              		.thumb_func
 502              		.type	Timer_2_Init, %function
 503              	Timer_2_Init:
 504              	.LFB0:
  44:.\Generated_Source\PSoC5/Timer_2.c ****     #if(!Timer_2_UsingFixedFunction)
 505              		.loc 1 44 0
 506              		.cfi_startproc
 507              		@ args = 0, pretend = 0, frame = 0
 508              		@ frame_needed = 0, uses_anonymous_args = 0
 509 0000 08B5     		push	{r3, lr}
 510              		.cfi_def_cfa_offset 8
 511              		.cfi_offset 3, -8
 512              		.cfi_offset 14, -4
 118:.\Generated_Source\PSoC5/Timer_2.c ****     Timer_2_WriteCounter(Timer_2_INIT_PERIOD);
 513              		.loc 1 118 0
 514 0002 4FF6FF70 		movw	r0, #65535
 515 0006 FFF7FEFF 		bl	Timer_2_WritePeriod
 516              	.LVL10:
 119:.\Generated_Source\PSoC5/Timer_2.c **** 
 517              		.loc 1 119 0
 518 000a 4FF6FF70 		movw	r0, #65535
 519 000e FFF7FEFF 		bl	Timer_2_WriteCounter
 520              	.LVL11:
 122:.\Generated_Source\PSoC5/Timer_2.c ****         Timer_2_SetCaptureCount(Timer_2_INIT_CAPTURE_COUNT);
 521              		.loc 1 122 0
 522 0012 0E4A     		ldr	r2, .L58
 523 0014 1378     		ldrb	r3, [r2]	@ zero_extendqisi2
 524 0016 43F02003 		orr	r3, r3, #32
 525 001a 1370     		strb	r3, [r2]
 123:.\Generated_Source\PSoC5/Timer_2.c ****     #endif /* Configure capture counter value */
 526              		.loc 1 123 0
 527 001c 0220     		movs	r0, #2
 528 001e FFF7FEFF 		bl	Timer_2_SetCaptureCount
 529              	.LVL12:
 142:.\Generated_Source\PSoC5/Timer_2.c **** 
 530              		.loc 1 142 0
 531 0022 FFF7FEFF 		bl	CyEnterCriticalSection
 532              	.LVL13:
 145:.\Generated_Source\PSoC5/Timer_2.c **** 
 533              		.loc 1 145 0
 534 0026 0A4A     		ldr	r2, .L58+4
ARM GAS  C:\Users\bwil410\AppData\Local\Temp\ccew9tx2.s 			page 24


 535 0028 1378     		ldrb	r3, [r2]	@ zero_extendqisi2
 536 002a 43F01003 		orr	r3, r3, #16
 537 002e 1370     		strb	r3, [r2]
 148:.\Generated_Source\PSoC5/Timer_2.c **** 
 538              		.loc 1 148 0
 539 0030 FFF7FEFF 		bl	CyExitCriticalSection
 540              	.LVL14:
 151:.\Generated_Source\PSoC5/Timer_2.c ****         #endif /* Set Trigger enable bit for UDB implementation in the control register*/
 541              		.loc 1 151 0
 542 0034 FFF7FEFF 		bl	Timer_2_EnableTrigger
 543              	.LVL15:
 156:.\Generated_Source\PSoC5/Timer_2.c ****         #endif /* Set interrupt count in UDB implementation if interrupt count feature is checked.*
 544              		.loc 1 156 0
 545 0038 0020     		movs	r0, #0
 546 003a FFF7FEFF 		bl	Timer_2_SetInterruptCount
 547              	.LVL16:
 159:.\Generated_Source\PSoC5/Timer_2.c ****     #endif /* Configure additional features of UDB implementation */
 548              		.loc 1 159 0
 549 003e FFF7FEFF 		bl	Timer_2_ClearFIFO
 550              	.LVL17:
 162:.\Generated_Source\PSoC5/Timer_2.c **** }
 551              		.loc 1 162 0
 552 0042 0220     		movs	r0, #2
 553 0044 FFF7FEFF 		bl	Timer_2_SetInterruptMode
 554              	.LVL18:
 555 0048 08BD     		pop	{r3, pc}
 556              	.L59:
 557 004a 00BF     		.align	2
 558              	.L58:
 559 004c 99650040 		.word	1073767833
 560 0050 98650040 		.word	1073767832
 561              		.cfi_endproc
 562              	.LFE0:
 563              		.size	Timer_2_Init, .-Timer_2_Init
 564              		.section	.text.Timer_2_Start,"ax",%progbits
 565              		.align	2
 566              		.global	Timer_2_Start
 567              		.thumb
 568              		.thumb_func
 569              		.type	Timer_2_Start, %function
 570              	Timer_2_Start:
 571              	.LFB2:
 216:.\Generated_Source\PSoC5/Timer_2.c ****     if(Timer_2_initVar == 0u)
 572              		.loc 1 216 0
 573              		.cfi_startproc
 574              		@ args = 0, pretend = 0, frame = 0
 575              		@ frame_needed = 0, uses_anonymous_args = 0
 576 0000 08B5     		push	{r3, lr}
 577              		.cfi_def_cfa_offset 8
 578              		.cfi_offset 3, -8
 579              		.cfi_offset 14, -4
 217:.\Generated_Source\PSoC5/Timer_2.c ****     {
 580              		.loc 1 217 0
 581 0002 054B     		ldr	r3, .L63
 582 0004 1B78     		ldrb	r3, [r3]	@ zero_extendqisi2
 583 0006 23B9     		cbnz	r3, .L61
 219:.\Generated_Source\PSoC5/Timer_2.c **** 
ARM GAS  C:\Users\bwil410\AppData\Local\Temp\ccew9tx2.s 			page 25


 584              		.loc 1 219 0
 585 0008 FFF7FEFF 		bl	Timer_2_Init
 586              	.LVL19:
 221:.\Generated_Source\PSoC5/Timer_2.c ****     }
 587              		.loc 1 221 0
 588 000c 0122     		movs	r2, #1
 589 000e 024B     		ldr	r3, .L63
 590 0010 1A70     		strb	r2, [r3]
 591              	.L61:
 225:.\Generated_Source\PSoC5/Timer_2.c **** }
 592              		.loc 1 225 0
 593 0012 FFF7FEFF 		bl	Timer_2_Enable
 594              	.LVL20:
 595 0016 08BD     		pop	{r3, pc}
 596              	.L64:
 597              		.align	2
 598              	.L63:
 599 0018 00000000 		.word	.LANCHOR0
 600              		.cfi_endproc
 601              	.LFE2:
 602              		.size	Timer_2_Start, .-Timer_2_Start
 603              		.global	Timer_2_initVar
 604              		.bss
 605              		.set	.LANCHOR0,. + 0
 606              		.type	Timer_2_initVar, %object
 607              		.size	Timer_2_initVar, 1
 608              	Timer_2_initVar:
 609 0000 00       		.space	1
 610              		.text
 611              	.Letext0:
 612              		.file 2 ".\\Generated_Source\\PSoC5\\cytypes.h"
 613              		.file 3 ".\\Generated_Source\\PSoC5\\CyLib.h"